ccopy_reg
_reconstructor
p0
(cDataDef
ProjectsClass
p1
c__builtin__
dict
p2
(dp3
I1216
(iDataDef
Project
p4
(dp5
S'NumberOfSimulationSteps'
p6
I5
sS'NumberOfRepetitions'
p7
I100
sS'DerivedFrom'
p8
I1180
sS'LastModified'
p9
cdatetime
datetime
p10
(S'\x07\xe0\x04\x02\x12,\x18\x07\xf7\x10'
p11
tp12
Rp13
sS'Notes'
p14
S'Tests Cost/QoL Wizard'
p15
sS'SimulationRules'
p16
(lp17
(iDataDef
SimulationRule
p18
(dp19
S'SimulationPhase'
p20
I1
sS'AffectedParam'
p21
g0
(cDataDef
Expr
p22
c__builtin__
str
p23
S'Age'
p24
tp25
Rp26
(dp27
S'DependantParams'
p28
(lp29
S'Age'
p30
asS'ValidationRule'
p31
NsS'ExpandedExpr'
p32
S'Age'
p33
sS'ReplacementSubExpressions'
p34
(lp35
g30
asS'RawReplacement'
p36
(lp37
S'$0$'
p38
ag30
asS'RawDependants'
p39
(lp40
S'$0$'
p41
asbsg14
S''
p42
sS'AppliedFormula'
p43
g0
(g22
g23
S'Age + 1'
p44
tp45
Rp46
(dp47
g28
(lp48
S'Age'
p49
asg31
Nsg32
S'Age + 1'
p50
sg34
(lp51
g49
asg36
(lp52
S'$0$ + 1'
p53
ag49
asg39
(lp54
S'$0$'
p55
asbsS'OccurrenceProbability'
p56
g0
(g22
g23
S'1'
p57
tp58
Rp59
(dp60
g28
(lp61
sg31
Nsg32
S'1'
p62
sg34
(lp63
sg36
(lp64
g62
asg39
(lp65
sbsba(iDataDef
SimulationRule
p66
(dp67
g20
I3
sg21
g0
(g22
g23
S'Ex18TestQoL'
p68
tp69
Rp70
(dp71
g28
(lp72
S'Ex18TestQoL'
p73
asg31
Nsg32
S'Ex18TestQoL'
p74
sg34
(lp75
g73
asg36
(lp76
S'$0$'
p77
ag73
asg39
(lp78
S'$0$'
p79
asbsg14
g42
sg43
g0
(g22
g23
S'CostWizard(1,.5,[State1,State2],[Iif(Gr(Age,31),.1,0),Iif(Gr(Age,33),.2,0)])'
p80
tp81
Rp82
(dp83
g28
(lp84
S'CostWizard'
p85
aS'State1'
p86
aS'State2'
p87
aS'Iif'
p88
aS'Gr'
p89
aS'Age'
p90
aS'Iif'
p91
aS'Gr'
p92
aS'Age'
p93
asg31
Nsg32
S'CostWizard(1,.5,[State1,State2],[Iif(Gr(Age,31),.1,0),Iif(Gr(Age,33),.2,0)])'
p94
sg34
(lp95
g85
ag86
ag87
ag88
ag89
ag90
ag91
ag92
ag93
asg36
(lp96
S'$0$(1,.5,[$1$,$2$],[$3$($4$($5$,31),.1,0),$6$($7$($8$,33),.2,0)])'
p97
ag85
ag86
ag87
ag88
ag89
ag90
ag91
ag92
ag93
asg39
(lp98
S'$0$'
p99
aS'$1$'
p100
aS'$2$'
p101
aS'$3$'
p102
aS'$4$'
p103
aS'$5$'
p104
aS'$6$'
p105
aS'$7$'
p106
aS'$8$'
p107
asbsg56
g0
(g22
g23
g57
tp108
Rp109
(dp110
g28
(lp111
sg31
Nsg32
g62
sg34
(lp112
sg36
(lp113
g62
asg39
(lp114
sbsbasS'CreatedOn'
p115
g10
(S'\x07\xe0\x04\x02\x12,\x0c\x0c)H'
p116
tp117
Rp118
sS'PrimaryPopulationSetID'
p119
I1180
sS'PrimaryModelID'
p120
I18000000
sS'ID'
p121
I1216
sS'Name'
p122
S'Simulation Project - Test Example 18_0'
p123
sbsI1217
(iDataDef
Project
p124
(dp125
g6
I23
sg7
I1
sg8
I0
sg9
g10
(S"\x07\xe0\x05\x06\n'\x07\t\xa0\xd8"
p126
tp127
Rp128
sg14
g42
sg16
(lp129
(iDataDef
SimulationRule
p130
(dp131
g20
I1
sg21
g0
(g22
g23
S'year_id'
p132
tp133
Rp134
(dp135
g28
(lp136
S'year_id'
p137
asg31
Nsg32
S'year_id'
p138
sg34
(lp139
g137
asg36
(lp140
S'$0$'
p141
ag137
asg39
(lp142
S'$0$'
p143
asbsg14
g42
sg43
g0
(g22
g23
S'year_id+1'
p144
tp145
Rp146
(dp147
g28
(lp148
S'year_id'
p149
asg31
Nsg32
S'year_id+1'
p150
sg34
(lp151
g149
asg36
(lp152
S'$0$+1'
p153
ag149
asg39
(lp154
S'$0$'
p155
asbsg56
g0
(g22
g23
g57
tp156
Rp157
(dp158
g28
(lp159
sg31
Nsg32
g57
sg34
(lp160
sg36
(lp161
g57
asg39
(lp162
sbsba(iDataDef
SimulationRule
p163
(dp164
g20
I1
sg21
g0
(g22
g23
S'age'
p165
tp166
Rp167
(dp168
g28
(lp169
S'age'
p170
asg31
Nsg32
S'age'
p171
sg34
(lp172
g170
asg36
(lp173
S'$0$'
p174
ag170
asg39
(lp175
S'$0$'
p176
asbsg14
g42
sg43
g0
(g22
g23
S'age+1'
p177
tp178
Rp179
(dp180
g28
(lp181
S'age'
p182
asg31
Nsg32
S'age+1'
p183
sg34
(lp184
g182
asg36
(lp185
S'$0$+1'
p186
ag182
asg39
(lp187
S'$0$'
p188
asbsg56
g0
(g22
g23
g57
tp189
Rp190
(dp191
g28
(lp192
sg31
Nsg32
g57
sg34
(lp193
sg36
(lp194
g57
asg39
(lp195
sbsbasg115
g10
(S'\x07\xe0\x04\x07\r!\x00\x06\xf5@'
p196
tp197
Rp198
sg119
I111111126
sg120
I52000007
sg121
I1217
sg122
S'HelloWorldIntervention'
p199
sbsI1090
(iDataDef
Project
p200
(dp201
g6
I10
sg7
I100
sg8
I0
sg9
g10
(S'\x07\xe0\x03\x17\x0c4\x05\x05\x05('
p202
tp203
Rp204
sg14
S'Combined Fork Loop and Event state'
p205
sg16
(lp206
(iDataDef
SimulationRule
p207
(dp208
g20
I1
sg21
g0
(g22
g23
S'Age'
p209
tp210
Rp211
(dp212
g28
(lp213
S'Age'
p214
asg31
Nsg32
S'Age'
p215
sg34
(lp216
g214
asg36
(lp217
S'$0$'
p218
ag214
asg39
(lp219
S'$0$'
p220
asbsg14
S'Age Increase'
p221
sg43
g0
(g22
g23
S'Age +1'
p222
tp223
Rp224
(dp225
g28
(lp226
S'Age'
p227
asg31
Nsg32
S'Age +1'
p228
sg34
(lp229
g227
asg36
(lp230
S'$0$ +1'
p231
ag227
asg39
(lp232
S'$0$'
p233
asbsg56
g0
(g22
g23
g57
tp234
Rp235
(dp236
g28
(lp237
sg31
Nsg32
S'1'
p238
sg34
(lp239
sg36
(lp240
g238
asg39
(lp241
sbsbasg115
g10
(S'\x07\xe0\x03\x17\x0c4\x05\x05\x05('
p242
tp243
Rp244
sg119
I1090
sg120
I9000000
sg121
I1090
sg122
S'Simulation Project - Test Example 9'
p245
sbsI1030
(iDataDef
Project
p246
(dp247
g6
I2
sg7
I1000
sg8
I0
sg9
g10
(S'\x07\xe0\x03\x17\x0c4\x05\x04\x8c\x10'
p248
tp249
Rp250
sg14
S'A fork state'
p251
sg16
(lp252
(iDataDef
SimulationRule
p253
(dp254
g20
I1
sg21
g0
(g22
g23
S'Age'
p255
tp256
Rp257
(dp258
g28
(lp259
S'Age'
p260
asg31
Nsg32
S'Age'
p261
sg34
(lp262
g260
asg36
(lp263
S'$0$'
p264
ag260
asg39
(lp265
S'$0$'
p266
asbsg14
g221
sg43
g0
(g22
g23
S'Age +1'
p267
tp268
Rp269
(dp270
g28
(lp271
S'Age'
p272
asg31
Nsg32
S'Age +1'
p273
sg34
(lp274
g272
asg36
(lp275
S'$0$ +1'
p276
ag272
asg39
(lp277
S'$0$'
p278
asbsg56
g0
(g22
g23
g57
tp279
Rp280
(dp281
g28
(lp282
sg31
Nsg32
g238
sg34
(lp283
sg36
(lp284
g238
asg39
(lp285
sbsbasg115
g10
(S'\x07\xe0\x03\x17\x0c4\x05\x04\x8c\x10'
p286
tp287
Rp288
sg119
I1030
sg120
I3000000
sg121
I1030
sg122
S'Simulation Project - Test Example 3'
p289
sbsI1160
(iDataDef
Project
p290
(dp291
g6
I2
sg7
I1000
sg8
I0
sg9
g10
(S'\x07\xe0\x03\x17\x0c4\x05\x06\xedp'
p292
tp293
Rp294
sg14
S'Function Tests'
p295
sg16
(lp296
(iDataDef
SimulationRule
p297
(dp298
g20
I1
sg21
g0
(g22
g23
S'BP'
p299
tp300
Rp301
(dp302
g28
(lp303
S'BP'
p304
asg31
Nsg32
S'BP'
p305
sg34
(lp306
g304
asg36
(lp307
S'$0$'
p308
ag304
asg39
(lp309
S'$0$'
p310
asbsg14
S'Add 4 to BP'
p311
sg43
g0
(g22
g23
S'BP + Le(Ls(Eq(Eq(-1,-1),Ne(-1,1)),1),0)*Not(Or(0,0)+And(0,1))*IsTrue(.1)*.5 + Ge(Gr(1,1),0)*Or(0,0,0,1)*And(1,1,1,1)*.5 + IsInvalidNumber(NaN)*IsInfiniteNumber(-Inf)*Not(IsFiniteNumber(Inf))*(1/Sqrt(Log(16,2))) + Ln(Exp(Max(.25,0,-3)+Min(.25,100,25))) + Pi()+1/Log10(10**2)-3.1415926535897931 + Abs(-.5)*Floor(1.9)*Ceil(.1)*Mod(3,2) + 4/Pow(2,3) + .5'
p312
tp313
Rp314
(dp315
g28
(lp316
S'BP'
p317
aS'Le'
p318
aS'Ls'
p319
aS'Eq'
p320
aS'Eq'
p321
aS'Ne'
p322
aS'Not'
p323
aS'Or'
p324
aS'And'
p325
aS'IsTrue'
p326
aS'Ge'
p327
aS'Gr'
p328
aS'Or'
p329
aS'And'
p330
aS'IsInvalidNumber'
p331
aS'NaN'
p332
aS'IsInfiniteNumber'
p333
aS'Inf'
p334
aS'Not'
p335
aS'IsFiniteNumber'
p336
aS'Inf'
p337
aS'Sqrt'
p338
aS'Log'
p339
aS'Ln'
p340
aS'Exp'
p341
aS'Max'
p342
aS'Min'
p343
aS'Pi'
p344
aS'Log10'
p345
aS'Abs'
p346
aS'Floor'
p347
aS'Ceil'
p348
aS'Mod'
p349
aS'Pow'
p350
asg31
Nsg32
S'BP + Le(Ls(Eq(Eq(-1,-1),Ne(-1,1)),1),0)*Not(Or(0,0)+And(0,1))*IsTrue(.1)*.5 + Ge(Gr(1,1),0)*Or(0,0,0,1)*And(1,1,1,1)*.5 + IsInvalidNumber(NaN)*IsInfiniteNumber(-Inf)*Not(IsFiniteNumber(Inf))*(1/Sqrt(Log(16,2))) + Ln(Exp(Max(.25,0,-3)+Min(.25,100,25))) + Pi()+1/Log10(10**2)-3.1415926535897931 + Abs(-.5)*Floor(1.9)*Ceil(.1)*Mod(3,2) + 4/Pow(2,3) + .5'
p351
sg34
(lp352
g317
ag318
ag319
ag320
ag321
ag322
ag323
ag324
ag325
ag326
ag327
ag328
ag329
ag330
ag331
ag332
ag333
ag334
ag335
ag336
ag337
ag338
ag339
ag340
ag341
ag342
ag343
ag344
ag345
ag346
ag347
ag348
ag349
ag350
asg36
(lp353
S'$0$ + $1$($2$($3$($4$(-1,-1),$5$(-1,1)),1),0)*$6$($7$(0,0)+$8$(0,1))*$9$(.1)*.5 + $10$($11$(1,1),0)*$12$(0,0,0,1)*$13$(1,1,1,1)*.5 + $14$($15$)*$16$(-$17$)*$18$($19$($20$))*(1/$21$($22$(16,2))) + $23$($24$($25$(.25,0,-3)+$26$(.25,100,25))) + $27$()+1/$28$(10**2)-3.1415926535897931 + $29$(-.5)*$30$(1.9)*$31$(.1)*$32$(3,2) + 4/$33$(2,3) + .5'
p354
ag317
ag318
ag319
ag320
ag321
ag322
ag323
ag324
ag325
ag326
ag327
ag328
ag329
ag330
ag331
ag332
ag333
ag334
ag335
ag336
ag337
ag338
ag339
ag340
ag341
ag342
ag343
ag344
ag345
ag346
ag347
ag348
ag349
ag350
asg39
(lp355
S'$0$'
p356
aS'$1$'
p357
aS'$2$'
p358
aS'$3$'
p359
aS'$4$'
p360
aS'$5$'
p361
aS'$6$'
p362
aS'$7$'
p363
aS'$8$'
p364
aS'$9$'
p365
aS'$10$'
p366
aS'$11$'
p367
aS'$12$'
p368
aS'$13$'
p369
aS'$14$'
p370
aS'$15$'
p371
aS'$16$'
p372
aS'$17$'
p373
aS'$18$'
p374
aS'$19$'
p375
aS'$20$'
p376
aS'$21$'
p377
aS'$22$'
p378
aS'$23$'
p379
aS'$24$'
p380
aS'$25$'
p381
aS'$26$'
p382
aS'$27$'
p383
aS'$28$'
p384
aS'$29$'
p385
aS'$30$'
p386
aS'$31$'
p387
aS'$32$'
p388
aS'$33$'
p389
asbsg56
g0
(g22
g23
g57
tp390
Rp391
(dp392
g28
(lp393
sg31
Nsg32
g238
sg34
(lp394
sg36
(lp395
g238
asg39
(lp396
sbsbasg115
g10
(S'\x07\xe0\x03\x17\x0c4\x05\x06\xedp'
p397
tp398
Rp399
sg119
I111111113
sg120
I52000001
sg121
I1160
sg122
S'Simulation Project - Test Example 16'
p400
sbsI1100
(iDataDef
Project
p401
(dp402
g6
I5
sg7
I500
sg8
I0
sg9
g10
(S'\x07\xe0\x03\x17\x0c4\x05\x05C\xa8'
p403
tp404
Rp405
sg14
S'Split, Join, Simple Test'
p406
sg16
(lp407
(iDataDef
SimulationRule
p408
(dp409
g20
I1
sg21
g0
(g22
g23
S'Age'
p410
tp411
Rp412
(dp413
g28
(lp414
S'Age'
p415
asg31
Nsg32
S'Age'
p416
sg34
(lp417
g415
asg36
(lp418
S'$0$'
p419
ag415
asg39
(lp420
S'$0$'
p421
asbsg14
g221
sg43
g0
(g22
g23
S'Age +1'
p422
tp423
Rp424
(dp425
g28
(lp426
S'Age'
p427
asg31
Nsg32
S'Age +1'
p428
sg34
(lp429
g427
asg36
(lp430
S'$0$ +1'
p431
ag427
asg39
(lp432
S'$0$'
p433
asbsg56
g0
(g22
g23
g57
tp434
Rp435
(dp436
g28
(lp437
sg31
Nsg32
g238
sg34
(lp438
sg36
(lp439
g238
asg39
(lp440
sbsbasg115
g10
(S'\x07\xe0\x03\x17\x0c4\x05\x05C\xa8'
p441
tp442
Rp443
sg119
I1100
sg120
I10000000
sg121
I1100
sg122
S'Simulation Project - Test Example 10'
p444
sbsI1040
(iDataDef
Project
p445
(dp446
g6
I5
sg7
I500
sg8
I0
sg9
g10
(S'\x07\xe0\x03\x17\x0c4\x05\x04\x8c\x10'
p447
tp448
Rp449
sg14
S'Funny Loop Example'
p450
sg16
(lp451
(iDataDef
SimulationRule
p452
(dp453
g20
I1
sg21
g0
(g22
g23
S'Age'
p454
tp455
Rp456
(dp457
g28
(lp458
S'Age'
p459
asg31
Nsg32
S'Age'
p460
sg34
(lp461
g459
asg36
(lp462
S'$0$'
p463
ag459
asg39
(lp464
S'$0$'
p465
asbsg14
g221
sg43
g0
(g22
g23
S'Age +1'
p466
tp467
Rp468
(dp469
g28
(lp470
S'Age'
p471
asg31
Nsg32
S'Age +1'
p472
sg34
(lp473
g471
asg36
(lp474
S'$0$ +1'
p475
ag471
asg39
(lp476
S'$0$'
p477
asbsg56
g0
(g22
g23
g57
tp478
Rp479
(dp480
g28
(lp481
sg31
Nsg32
g238
sg34
(lp482
sg36
(lp483
g238
asg39
(lp484
sbsbasg115
g10
(S'\x07\xe0\x03\x17\x0c4\x05\x04\x8c\x10'
p485
tp486
Rp487
sg119
I1040
sg120
I4000000
sg121
I1040
sg122
S'Simulation Project - Test Example 4'
p488
sbsI1170
(iDataDef
Project
p489
(dp490
g6
I10
sg7
I50
sg8
I0
sg9
g10
(S'\x07\xe0\x03\x17\x0c4\x05\x07jp'
p491
tp492
Rp493
sg14
S'Tests Iif(), conditionals, and feedback to indicators'
p494
sg16
(lp495
(iDataDef
SimulationRule
p496
(dp497
g20
I0
sg21
g0
(g22
g23
S'State2_Diagnosed'
p498
tp499
Rp500
(dp501
g28
(lp502
S'State2_Diagnosed'
p503
asg31
Nsg32
S'State2_Diagnosed'
p504
sg34
(lp505
g503
asg36
(lp506
S'$0$'
p507
ag503
asg39
(lp508
S'$0$'
p509
asbsg14
g42
sg43
g0
(g22
g23
S'State2'
p510
tp511
Rp512
(dp513
g28
(lp514
S'State2'
p515
asg31
Nsg32
S'State2'
p516
sg34
(lp517
g515
asg36
(lp518
S'$0$'
p519
ag515
asg39
(lp520
S'$0$'
p521
asbsg56
g0
(g22
g23
g57
tp522
Rp523
(dp524
g28
(lp525
sg31
Nsg32
g238
sg34
(lp526
sg36
(lp527
g238
asg39
(lp528
sbsba(iDataDef
SimulationRule
p529
(dp530
g20
I1
sg21
g0
(g22
g23
S'Age'
p531
tp532
Rp533
(dp534
g28
(lp535
S'Age'
p536
asg31
Nsg32
S'Age'
p537
sg34
(lp538
g536
asg36
(lp539
S'$0$'
p540
ag536
asg39
(lp541
S'$0$'
p542
asbsg14
g42
sg43
g0
(g22
g23
S'Age+1'
p543
tp544
Rp545
(dp546
g28
(lp547
S'Age'
p548
asg31
Nsg32
S'Age+1'
p549
sg34
(lp550
g548
asg36
(lp551
S'$0$+1'
p552
ag548
asg39
(lp553
S'$0$'
p554
asbsg56
g0
(g22
g23
g57
tp555
Rp556
(dp557
g28
(lp558
sg31
Nsg32
g238
sg34
(lp559
sg36
(lp560
g238
asg39
(lp561
sbsba(iDataDef
SimulationRule
p562
(dp563
g20
I1
sg21
g0
(g22
g23
S'Ex17TestCovariate'
p564
tp565
Rp566
(dp567
g28
(lp568
S'Ex17TestCovariate'
p569
asg31
Nsg32
S'Ex17TestCovariate'
p570
sg34
(lp571
g569
asg36
(lp572
S'$0$'
p573
ag569
asg39
(lp574
S'$0$'
p575
asbsg14
g42
sg43
g0
(g22
g23
S'Ex17TestCovariate+1'
p576
tp577
Rp578
(dp579
g28
(lp580
S'Ex17TestCovariate'
p581
asg31
Nsg32
S'Ex17TestCovariate+1'
p582
sg34
(lp583
g581
asg36
(lp584
S'$0$+1'
p585
ag581
asg39
(lp586
S'$0$'
p587
asbsg56
g0
(g22
g23
S'State0'
p588
tp589
Rp590
(dp591
g28
(lp592
S'State0'
p593
asg31
Nsg32
S'State0'
p594
sg34
(lp595
g593
asg36
(lp596
S'$0$'
p597
ag593
asg39
(lp598
S'$0$'
p599
asbsba(iDataDef
SimulationRule
p600
(dp601
g20
I1
sg21
g0
(g22
g23
S'Ex17TestCovariate2'
p602
tp603
Rp604
(dp605
g28
(lp606
S'Ex17TestCovariate2'
p607
asg31
Nsg32
S'Ex17TestCovariate2'
p608
sg34
(lp609
g607
asg36
(lp610
S'$0$'
p611
ag607
asg39
(lp612
S'$0$'
p613
asbsg14
g42
sg43
g0
(g22
g23
S'Iif(State0, Ex17TestCovariate2 + 1, Ex17TestCovariate2)'
p614
tp615
Rp616
(dp617
g28
(lp618
S'Iif'
p619
aS'State0'
p620
aS'Ex17TestCovariate2'
p621
aS'Ex17TestCovariate2'
p622
asg31
Nsg32
S'Iif(State0, Ex17TestCovariate2 + 1, Ex17TestCovariate2)'
p623
sg34
(lp624
g619
ag620
ag621
ag622
asg36
(lp625
S'$0$($1$, $2$ + 1, $3$)'
p626
ag619
ag620
ag621
ag622
asg39
(lp627
S'$0$'
p628
aS'$1$'
p629
aS'$2$'
p630
aS'$3$'
p631
asbsg56
g0
(g22
g23
S'Iif(State0, 1, 0)'
p632
tp633
Rp634
(dp635
g28
(lp636
S'Iif'
p637
aS'State0'
p638
asg31
Nsg32
S'Iif(State0, 1, 0)'
p639
sg34
(lp640
g637
ag638
asg36
(lp641
S'$0$($1$, 1, 0)'
p642
ag637
ag638
asg39
(lp643
S'$0$'
p644
aS'$1$'
p645
asbsba(iDataDef
SimulationRule
p646
(dp647
g20
I3
sg21
g0
(g22
g23
S'State2_Diagnosed'
p648
tp649
Rp650
(dp651
g28
(lp652
S'State2_Diagnosed'
p653
asg31
Nsg32
S'State2_Diagnosed'
p654
sg34
(lp655
g653
asg36
(lp656
S'$0$'
p657
ag653
asg39
(lp658
S'$0$'
p659
asbsg14
g42
sg43
g0
(g22
g23
S'Iif(Gr(Age, 34), 1, 0)'
p660
tp661
Rp662
(dp663
g28
(lp664
S'Iif'
p665
aS'Gr'
p666
aS'Age'
p667
asg31
Nsg32
S'Iif(Gr(Age, 34), 1, 0)'
p668
sg34
(lp669
g665
ag666
ag667
asg36
(lp670
S'$0$($1$($2$, 34), 1, 0)'
p671
ag665
ag666
ag667
asg39
(lp672
S'$0$'
p673
aS'$1$'
p674
aS'$2$'
p675
asbsg56
g0
(g22
g23
S'State2'
p676
tp677
Rp678
(dp679
g28
(lp680
S'State2'
p681
asg31
Nsg32
S'State2'
p682
sg34
(lp683
g681
asg36
(lp684
S'$0$'
p685
ag681
asg39
(lp686
S'$0$'
p687
asbsbasg115
g10
(S'\x07\xe0\x03\x17\x0c4\x05\x07jp'
p688
tp689
Rp690
sg119
I1170
sg120
I17000000
sg121
I1170
sg122
S'Simulation Project - Test Example 17'
p691
sbsI1110
(iDataDef
Project
p692
(dp693
g6
I5
sg7
I500
sg8
I0
sg9
g10
(S'\x07\xe0\x03\x17\x0c4\x05\x05C\xa8'
p694
tp695
Rp696
sg14
S'Split, Join, and Event Test'
p697
sg16
(lp698
(iDataDef
SimulationRule
p699
(dp700
g20
I1
sg21
g0
(g22
g23
S'Age'
p701
tp702
Rp703
(dp704
g28
(lp705
S'Age'
p706
asg31
Nsg32
S'Age'
p707
sg34
(lp708
g706
asg36
(lp709
S'$0$'
p710
ag706
asg39
(lp711
S'$0$'
p712
asbsg14
g221
sg43
g0
(g22
g23
S'Age +1'
p713
tp714
Rp715
(dp716
g28
(lp717
S'Age'
p718
asg31
Nsg32
S'Age +1'
p719
sg34
(lp720
g718
asg36
(lp721
S'$0$ +1'
p722
ag718
asg39
(lp723
S'$0$'
p724
asbsg56
g0
(g22
g23
g57
tp725
Rp726
(dp727
g28
(lp728
sg31
Nsg32
g238
sg34
(lp729
sg36
(lp730
g238
asg39
(lp731
sbsbasg115
g10
(S'\x07\xe0\x03\x17\x0c4\x05\x05C\xa8'
p732
tp733
Rp734
sg119
I1110
sg120
I11000000
sg121
I1110
sg122
S'Simulation Project - Test Example 11'
p735
sbsI1051
(iDataDef
Project
p736
(dp737
g6
I2
sg7
I1000
sg8
I0
sg9
g10
(S'\x07\xe0\x03\x17\x0c4\x05\x04\x8c\x10'
p738
tp739
Rp740
sg14
S'Multiple Transitions in a Chain with an Expression and Boolean Covariate'
p741
sg16
(lp742
sg115
g10
(S'\x07\xe0\x03\x17\x0c4\x05\x04\x8c\x10'
p743
tp744
Rp745
sg119
I1051
sg120
I51000000
sg121
I1051
sg122
S'Simulation Project - Test Example 5a'
p746
sbsI1052
(iDataDef
Project
p747
(dp748
g6
I2
sg7
I1000
sg8
I0
sg9
g10
(S'\x07\xe0\x03\x17\x0c4\x05\x04\xca\x90'
p749
tp750
Rp751
sg14
S'Multiple Transitions in a Chain with an Expression and Continuous Covariate'
p752
sg16
(lp753
(iDataDef
SimulationRule
p754
(dp755
g20
I1
sg21
g0
(g22
g23
S'Age'
p756
tp757
Rp758
(dp759
g28
(lp760
S'Age'
p761
asg31
Nsg32
S'Age'
p762
sg34
(lp763
g761
asg36
(lp764
S'$0$'
p765
ag761
asg39
(lp766
S'$0$'
p767
asbsg14
g221
sg43
g0
(g22
g23
S'Age +1'
p768
tp769
Rp770
(dp771
g28
(lp772
S'Age'
p773
asg31
Nsg32
S'Age +1'
p774
sg34
(lp775
g773
asg36
(lp776
S'$0$ +1'
p777
ag773
asg39
(lp778
S'$0$'
p779
asbsg56
g0
(g22
g23
g57
tp780
Rp781
(dp782
g28
(lp783
sg31
Nsg32
g238
sg34
(lp784
sg36
(lp785
g238
asg39
(lp786
sbsbasg115
g10
(S'\x07\xe0\x03\x17\x0c4\x05\x04\xca\x90'
p787
tp788
Rp789
sg119
I1052
sg120
I52000000
sg121
I1052
sg122
S'Simulation Project - Test Example 5b'
p790
sbsI1120
(iDataDef
Project
p791
(dp792
g6
I10
sg7
I500
sg8
I0
sg9
g10
(S'\x07\xe0\x03\x17\x0c4\x05\x05\x82('
p793
tp794
Rp795
sg14
S'Nested split/join test'
p796
sg16
(lp797
(iDataDef
SimulationRule
p798
(dp799
g20
I1
sg21
g0
(g22
g23
S'Age'
p800
tp801
Rp802
(dp803
g28
(lp804
S'Age'
p805
asg31
Nsg32
S'Age'
p806
sg34
(lp807
g805
asg36
(lp808
S'$0$'
p809
ag805
asg39
(lp810
S'$0$'
p811
asbsg14
g221
sg43
g0
(g22
g23
S'Age +1'
p812
tp813
Rp814
(dp815
g28
(lp816
S'Age'
p817
asg31
Nsg32
S'Age +1'
p818
sg34
(lp819
g817
asg36
(lp820
S'$0$ +1'
p821
ag817
asg39
(lp822
S'$0$'
p823
asbsg56
g0
(g22
g23
g57
tp824
Rp825
(dp826
g28
(lp827
sg31
Nsg32
g238
sg34
(lp828
sg36
(lp829
g238
asg39
(lp830
sbsbasg115
g10
(S'\x07\xe0\x03\x17\x0c4\x05\x05\x82('
p831
tp832
Rp833
sg119
I1120
sg120
I12000000
sg121
I1120
sg122
S'Simulation Project - Test Example 12'
p834
sbsI1060
(iDataDef
Project
p835
(dp836
g6
I3
sg7
I10000
sg8
I0
sg9
g10
(S'\x07\xe0\x03\x17\x0c4\x05\x04\xca\x90'
p837
tp838
Rp839
sg14
S'Multiple Transitions in a Long Chain with an Expression Containing a Continuous Covariate'
p840
sg16
(lp841
(iDataDef
SimulationRule
p842
(dp843
g20
I1
sg21
g0
(g22
g23
S'Age'
p844
tp845
Rp846
(dp847
g28
(lp848
S'Age'
p849
asg31
Nsg32
S'Age'
p850
sg34
(lp851
g849
asg36
(lp852
S'$0$'
p853
ag849
asg39
(lp854
S'$0$'
p855
asbsg14
g221
sg43
g0
(g22
g23
S'Age +1'
p856
tp857
Rp858
(dp859
g28
(lp860
S'Age'
p861
asg31
Nsg32
S'Age +1'
p862
sg34
(lp863
g861
asg36
(lp864
S'$0$ +1'
p865
ag861
asg39
(lp866
S'$0$'
p867
asbsg56
g0
(g22
g23
g57
tp868
Rp869
(dp870
g28
(lp871
sg31
Nsg32
g238
sg34
(lp872
sg36
(lp873
g238
asg39
(lp874
sbsbasg115
g10
(S'\x07\xe0\x03\x17\x0c4\x05\x04\xca\x90'
p875
tp876
Rp877
sg119
I1060
sg120
I6000000
sg121
I1060
sg122
S'Simulation Project - Test Example 6'
p878
sbsI1190
(iDataDef
Project
p879
(dp880
g6
I2
sg7
I1000
sg8
I0
sg9
g10
(S'\x07\xe0\x03\x17\x0c4\x05\x07\xe3\x88'
p881
tp882
Rp883
sg14
S'Distribution Function Test'
p884
sg16
(lp885
(iDataDef
SimulationRule
p886
(dp887
g20
I1
sg21
g0
(g22
g23
S'TestCov1'
p888
tp889
Rp890
(dp891
g28
(lp892
S'TestCov1'
p893
asg31
Nsg32
S'TestCov1'
p894
sg34
(lp895
g893
asg36
(lp896
S'$0$'
p897
ag893
asg39
(lp898
S'$0$'
p899
asbsg14
S'Test Bernoulli random number generation'
p900
sg43
g0
(g22
g23
S'Le(Bernoulli(0.5), 0.5)'
p901
tp902
Rp903
(dp904
g28
(lp905
S'Le'
p906
aS'Bernoulli'
p907
asg31
Nsg32
S'Le(Bernoulli(0.5), 0.5)'
p908
sg34
(lp909
g906
ag907
asg36
(lp910
S'$0$($1$(0.5), 0.5)'
p911
ag906
ag907
asg39
(lp912
S'$0$'
p913
aS'$1$'
p914
asbsg56
g0
(g22
g23
g57
tp915
Rp916
(dp917
g28
(lp918
sg31
Nsg32
g238
sg34
(lp919
sg36
(lp920
g238
asg39
(lp921
sbsba(iDataDef
SimulationRule
p922
(dp923
g20
I1
sg21
g0
(g22
g23
S'TestCov2'
p924
tp925
Rp926
(dp927
g28
(lp928
S'TestCov2'
p929
asg31
Nsg32
S'TestCov2'
p930
sg34
(lp931
g929
asg36
(lp932
S'$0$'
p933
ag929
asg39
(lp934
S'$0$'
p935
asbsg14
S'Test Binomial random number generation'
p936
sg43
g0
(g22
g23
S'Le(Binomial(3,0.5), 1)'
p937
tp938
Rp939
(dp940
g28
(lp941
S'Le'
p942
aS'Binomial'
p943
asg31
Nsg32
S'Le(Binomial(3,0.5), 1)'
p944
sg34
(lp945
g942
ag943
asg36
(lp946
S'$0$($1$(3,0.5), 1)'
p947
ag942
ag943
asg39
(lp948
S'$0$'
p949
aS'$1$'
p950
asbsg56
g0
(g22
g23
g57
tp951
Rp952
(dp953
g28
(lp954
sg31
Nsg32
g238
sg34
(lp955
sg36
(lp956
g238
asg39
(lp957
sbsba(iDataDef
SimulationRule
p958
(dp959
g20
I1
sg21
g0
(g22
g23
S'TestCov3'
p960
tp961
Rp962
(dp963
g28
(lp964
S'TestCov3'
p965
asg31
Nsg32
S'TestCov3'
p966
sg34
(lp967
g965
asg36
(lp968
S'$0$'
p969
ag965
asg39
(lp970
S'$0$'
p971
asbsg14
S'Test Geometric random number generation'
p972
sg43
g0
(g22
g23
S'Le(Geometric(1-0.5**0.5), 2)'
p973
tp974
Rp975
(dp976
g28
(lp977
S'Le'
p978
aS'Geometric'
p979
asg31
Nsg32
S'Le(Geometric(1-0.5**0.5), 2)'
p980
sg34
(lp981
g978
ag979
asg36
(lp982
S'$0$($1$(1-0.5**0.5), 2)'
p983
ag978
ag979
asg39
(lp984
S'$0$'
p985
aS'$1$'
p986
asbsg56
g0
(g22
g23
g57
tp987
Rp988
(dp989
g28
(lp990
sg31
Nsg32
g238
sg34
(lp991
sg36
(lp992
g238
asg39
(lp993
sbsba(iDataDef
SimulationRule
p994
(dp995
g20
I1
sg21
g0
(g22
g23
S'TestCov4'
p996
tp997
Rp998
(dp999
g28
(lp1000
S'TestCov4'
p1001
asg31
Nsg32
S'TestCov4'
p1002
sg34
(lp1003
g1001
asg36
(lp1004
S'$0$'
p1005
ag1001
asg39
(lp1006
S'$0$'
p1007
asbsg14
S'Test Uniform random number generation'
p1008
sg43
g0
(g22
g23
S'Le(Uniform(0,2),1)'
p1009
tp1010
Rp1011
(dp1012
g28
(lp1013
S'Le'
p1014
aS'Uniform'
p1015
asg31
Nsg32
S'Le(Uniform(0,2),1)'
p1016
sg34
(lp1017
g1014
ag1015
asg36
(lp1018
S'$0$($1$(0,2),1)'
p1019
ag1014
ag1015
asg39
(lp1020
S'$0$'
p1021
aS'$1$'
p1022
asbsg56
g0
(g22
g23
g57
tp1023
Rp1024
(dp1025
g28
(lp1026
sg31
Nsg32
g238
sg34
(lp1027
sg36
(lp1028
g238
asg39
(lp1029
sbsba(iDataDef
SimulationRule
p1030
(dp1031
g20
I1
sg21
g0
(g22
g23
S'TestCov5'
p1032
tp1033
Rp1034
(dp1035
g28
(lp1036
S'TestCov5'
p1037
asg31
Nsg32
S'TestCov5'
p1038
sg34
(lp1039
g1037
asg36
(lp1040
S'$0$'
p1041
ag1037
asg39
(lp1042
S'$0$'
p1043
asbsg14
S'Test Gaussian random number generation'
p1044
sg43
g0
(g22
g23
S'Le(Gaussian(3,1), 3)'
p1045
tp1046
Rp1047
(dp1048
g28
(lp1049
S'Le'
p1050
aS'Gaussian'
p1051
asg31
Nsg32
S'Le(Gaussian(3,1), 3)'
p1052
sg34
(lp1053
g1050
ag1051
asg36
(lp1054
S'$0$($1$(3,1), 3)'
p1055
ag1050
ag1051
asg39
(lp1056
S'$0$'
p1057
aS'$1$'
p1058
asbsg56
g0
(g22
g23
g57
tp1059
Rp1060
(dp1061
g28
(lp1062
sg31
Nsg32
g238
sg34
(lp1063
sg36
(lp1064
g238
asg39
(lp1065
sbsbasg115
g10
(S'\x07\xe0\x03\x17\x0c4\x05\x07\xe3\x88'
p1066
tp1067
Rp1068
sg119
I1190
sg120
I19000000
sg121
I1190
sg122
S'Simulation Project - Test Example 19'
p1069
sbsI1180
(iDataDef
Project
p1070
(dp1071
g6
I5
sg7
I100
sg8
I0
sg9
g10
(S'\x07\xe0\x03\x17\x0c4\x05\x07jp'
p1072
tp1073
Rp1074
sg14
S'Tests Cost/QoL Wizard'
p1075
sg16
(lp1076
(iDataDef
SimulationRule
p1077
(dp1078
g20
I1
sg21
g0
(g22
g23
S'Age'
p1079
tp1080
Rp1081
(dp1082
g28
(lp1083
S'Age'
p1084
asg31
Nsg32
S'Age'
p1085
sg34
(lp1086
g1084
asg36
(lp1087
S'$0$'
p1088
ag1084
asg39
(lp1089
S'$0$'
p1090
asbsg14
g42
sg43
g0
(g22
g23
S'Age + 1'
p1091
tp1092
Rp1093
(dp1094
g28
(lp1095
S'Age'
p1096
asg31
Nsg32
S'Age + 1'
p1097
sg34
(lp1098
g1096
asg36
(lp1099
S'$0$ + 1'
p1100
ag1096
asg39
(lp1101
S'$0$'
p1102
asbsg56
g0
(g22
g23
g57
tp1103
Rp1104
(dp1105
g28
(lp1106
sg31
Nsg32
g238
sg34
(lp1107
sg36
(lp1108
g238
asg39
(lp1109
sbsba(iDataDef
SimulationRule
p1110
(dp1111
g20
I3
sg21
g0
(g22
g23
S'Ex18TestCost'
p1112
tp1113
Rp1114
(dp1115
g28
(lp1116
S'Ex18TestCost'
p1117
asg31
Nsg32
S'Ex18TestCost'
p1118
sg34
(lp1119
g1117
asg36
(lp1120
S'$0$'
p1121
ag1117
asg39
(lp1122
S'$0$'
p1123
asbsg14
g42
sg43
g0
(g22
g23
S'CostWizard(0,100,[State1,State2],[Iif(Gr(Age,31),3,0),Iif(Gr(Age,33),2,0)])'
p1124
tp1125
Rp1126
(dp1127
g28
(lp1128
S'CostWizard'
p1129
aS'State1'
p1130
aS'State2'
p1131
aS'Iif'
p1132
aS'Gr'
p1133
aS'Age'
p1134
aS'Iif'
p1135
aS'Gr'
p1136
aS'Age'
p1137
asg31
Nsg32
S'CostWizard(0,100,[State1,State2],[Iif(Gr(Age,31),3,0),Iif(Gr(Age,33),2,0)])'
p1138
sg34
(lp1139
g1129
ag1130
ag1131
ag1132
ag1133
ag1134
ag1135
ag1136
ag1137
asg36
(lp1140
S'$0$(0,100,[$1$,$2$],[$3$($4$($5$,31),3,0),$6$($7$($8$,33),2,0)])'
p1141
ag1129
ag1130
ag1131
ag1132
ag1133
ag1134
ag1135
ag1136
ag1137
asg39
(lp1142
S'$0$'
p1143
aS'$1$'
p1144
aS'$2$'
p1145
aS'$3$'
p1146
aS'$4$'
p1147
aS'$5$'
p1148
aS'$6$'
p1149
aS'$7$'
p1150
aS'$8$'
p1151
asbsg56
g0
(g22
g23
g57
tp1152
Rp1153
(dp1154
g28
(lp1155
sg31
Nsg32
g238
sg34
(lp1156
sg36
(lp1157
g238
asg39
(lp1158
sbsba(iDataDef
SimulationRule
p1159
(dp1160
g20
I3
sg21
g0
(g22
g23
S'Ex18TestQoL'
p1161
tp1162
Rp1163
(dp1164
g28
(lp1165
S'Ex18TestQoL'
p1166
asg31
Nsg32
S'Ex18TestQoL'
p1167
sg34
(lp1168
g1166
asg36
(lp1169
S'$0$'
p1170
ag1166
asg39
(lp1171
S'$0$'
p1172
asbsg14
g42
sg43
g0
(g22
g23
S'CostWizard(1,.5,[State1,State2],[Iif(Gr(Age,31),.1,0),Iif(Gr(Age,33),.2,0)])'
p1173
tp1174
Rp1175
(dp1176
g28
(lp1177
S'CostWizard'
p1178
aS'State1'
p1179
aS'State2'
p1180
aS'Iif'
p1181
aS'Gr'
p1182
aS'Age'
p1183
aS'Iif'
p1184
aS'Gr'
p1185
aS'Age'
p1186
asg31
Nsg32
S'CostWizard(1,.5,[State1,State2],[Iif(Gr(Age,31),.1,0),Iif(Gr(Age,33),.2,0)])'
p1187
sg34
(lp1188
g1178
ag1179
ag1180
ag1181
ag1182
ag1183
ag1184
ag1185
ag1186
asg36
(lp1189
S'$0$(1,.5,[$1$,$2$],[$3$($4$($5$,31),.1,0),$6$($7$($8$,33),.2,0)])'
p1190
ag1178
ag1179
ag1180
ag1181
ag1182
ag1183
ag1184
ag1185
ag1186
asg39
(lp1191
S'$0$'
p1192
aS'$1$'
p1193
aS'$2$'
p1194
aS'$3$'
p1195
aS'$4$'
p1196
aS'$5$'
p1197
aS'$6$'
p1198
aS'$7$'
p1199
aS'$8$'
p1200
asbsg56
g0
(g22
g23
g57
tp1201
Rp1202
(dp1203
g28
(lp1204
sg31
Nsg32
g238
sg34
(lp1205
sg36
(lp1206
g238
asg39
(lp1207
sbsbasg115
g10
(S'\x07\xe0\x03\x17\x0c4\x05\x07jp'
p1208
tp1209
Rp1210
sg119
I1180
sg120
I18000000
sg121
I1180
sg122
S'Simulation Project - Test Example 18'
p1211
sbsI1130
(iDataDef
Project
p1212
(dp1213
g6
I10
sg7
I500
sg8
I0
sg9
g10
(S'\x07\xe0\x03\x17\x0c4\x05\x05\xbc\xc0'
p1214
tp1215
Rp1216
sg14
S'Split and join test without termination in a subprocess'
p1217
sg16
(lp1218
(iDataDef
SimulationRule
p1219
(dp1220
g20
I1
sg21
g0
(g22
g23
S'Age'
p1221
tp1222
Rp1223
(dp1224
g28
(lp1225
S'Age'
p1226
asg31
Nsg32
S'Age'
p1227
sg34
(lp1228
g1226
asg36
(lp1229
S'$0$'
p1230
ag1226
asg39
(lp1231
S'$0$'
p1232
asbsg14
g42
sg43
g0
(g22
g23
S'Age+1'
p1233
tp1234
Rp1235
(dp1236
g28
(lp1237
S'Age'
p1238
asg31
Nsg32
S'Age+1'
p1239
sg34
(lp1240
g1238
asg36
(lp1241
S'$0$+1'
p1242
ag1238
asg39
(lp1243
S'$0$'
p1244
asbsg56
g0
(g22
g23
g57
tp1245
Rp1246
(dp1247
g28
(lp1248
sg31
Nsg32
g238
sg34
(lp1249
sg36
(lp1250
g238
asg39
(lp1251
sbsbasg115
g10
(S'\x07\xe0\x03\x17\x0c4\x05\x05\xbc\xc0'
p1252
tp1253
Rp1254
sg119
I1130
sg120
I13000000
sg121
I1130
sg122
S'Simulation Project - Test Example 13'
p1255
sbsI1070
(iDataDef
Project
p1256
(dp1257
g6
I3
sg7
I1000
sg8
I0
sg9
g10
(S'\x07\xe0\x03\x17\x0c4\x05\x05\x05('
p1258
tp1259
Rp1260
sg14
S'Funny Loop Example with an Expression'
p1261
sg16
(lp1262
(iDataDef
SimulationRule
p1263
(dp1264
g20
I1
sg21
g0
(g22
g23
S'Age'
p1265
tp1266
Rp1267
(dp1268
g28
(lp1269
S'Age'
p1270
asg31
Nsg32
S'Age'
p1271
sg34
(lp1272
g1270
asg36
(lp1273
S'$0$'
p1274
ag1270
asg39
(lp1275
S'$0$'
p1276
asbsg14
g221
sg43
g0
(g22
g23
S'Age +1'
p1277
tp1278
Rp1279
(dp1280
g28
(lp1281
S'Age'
p1282
asg31
Nsg32
S'Age +1'
p1283
sg34
(lp1284
g1282
asg36
(lp1285
S'$0$ +1'
p1286
ag1282
asg39
(lp1287
S'$0$'
p1288
asbsg56
g0
(g22
g23
g57
tp1289
Rp1290
(dp1291
g28
(lp1292
sg31
Nsg32
g238
sg34
(lp1293
sg36
(lp1294
g238
asg39
(lp1295
sbsbasg115
g10
(S'\x07\xe0\x03\x17\x0c4\x05\x05\x05('
p1296
tp1297
Rp1298
sg119
I1070
sg120
I7000000
sg121
I1070
sg122
S'Simulation Project - Test Example 7'
p1299
sbsI1200
(iDataDef
Project
p1300
(dp1301
g6
I3
sg7
I1000
sg8
I0
sg9
g10
(S'\x07\xe0\x03\x17\x0c4\x05\x08"\x08'
p1302
tp1303
Rp1304
sg14
S'Simple Example with Initial Population Defined by Distributions'
p1305
sg16
(lp1306
(iDataDef
SimulationRule
p1307
(dp1308
g20
I1
sg21
g0
(g22
g23
S'Age'
p1309
tp1310
Rp1311
(dp1312
g28
(lp1313
S'Age'
p1314
asg31
Nsg32
S'Age'
p1315
sg34
(lp1316
g1314
asg36
(lp1317
S'$0$'
p1318
ag1314
asg39
(lp1319
S'$0$'
p1320
asbsg14
g221
sg43
g0
(g22
g23
S'Age +1'
p1321
tp1322
Rp1323
(dp1324
g28
(lp1325
S'Age'
p1326
asg31
Nsg32
S'Age +1'
p1327
sg34
(lp1328
g1326
asg36
(lp1329
S'$0$ +1'
p1330
ag1326
asg39
(lp1331
S'$0$'
p1332
asbsg56
g0
(g22
g23
g57
tp1333
Rp1334
(dp1335
g28
(lp1336
sg31
Nsg32
g238
sg34
(lp1337
sg36
(lp1338
g238
asg39
(lp1339
sbsbasg115
g10
(S'\x07\xe0\x03\x17\x0c4\x05\x08"\x08'
p1340
tp1341
Rp1342
sg119
I1200
sg120
I20000000
sg121
I1200
sg122
S'Simulation Project - Test Example 20'
p1343
sbsI1010
(iDataDef
Project
p1344
(dp1345
g6
I3
sg7
I100
sg8
I0
sg9
g10
(S'\x07\xe0\x03\x17\x0c4\x05\x04Qx'
p1346
tp1347
Rp1348
sg14
S'Simple Example'
p1349
sg16
(lp1350
(iDataDef
SimulationRule
p1351
(dp1352
g20
I1
sg21
g0
(g22
g23
S'Age'
p1353
tp1354
Rp1355
(dp1356
g28
(lp1357
S'Age'
p1358
asg31
Nsg32
S'Age'
p1359
sg34
(lp1360
g1358
asg36
(lp1361
S'$0$'
p1362
ag1358
asg39
(lp1363
S'$0$'
p1364
asbsg14
g221
sg43
g0
(g22
g23
S'Age +1'
p1365
tp1366
Rp1367
(dp1368
g28
(lp1369
S'Age'
p1370
asg31
Nsg32
S'Age +1'
p1371
sg34
(lp1372
g1370
asg36
(lp1373
S'$0$ +1'
p1374
ag1370
asg39
(lp1375
S'$0$'
p1376
asbsg56
g0
(g22
g23
g57
tp1377
Rp1378
(dp1379
g28
(lp1380
sg31
Nsg32
g238
sg34
(lp1381
sg36
(lp1382
g238
asg39
(lp1383
sbsbasg115
g10
(S'\x07\xe0\x03\x17\x0c4\x05\x04Qx'
p1384
tp1385
Rp1386
sg119
I1010
sg120
I1000000
sg121
I1010
sg122
S'Simulation Project - Test Example 1'
p1387
sbsI1212
(iDataDef
Project
p1388
(dp1389
g6
I23
sg7
I1
sg8
I0
sg9
g10
(S'\x07\xe0\x03\x1d\x0c08\x07b\xa0'
p1390
tp1391
Rp1392
sg14
g42
sg16
(lp1393
(iDataDef
SimulationRule
p1394
(dp1395
g20
I1
sg21
g0
(g22
g23
S'year_id'
p1396
tp1397
Rp1398
(dp1399
g28
(lp1400
S'year_id'
p1401
asg31
Nsg32
S'year_id'
p1402
sg34
(lp1403
g1401
asg36
(lp1404
S'$0$'
p1405
ag1401
asg39
(lp1406
S'$0$'
p1407
asbsg14
g42
sg43
g0
(g22
g23
S'year_id+1'
p1408
tp1409
Rp1410
(dp1411
g28
(lp1412
S'year_id'
p1413
asg31
Nsg32
S'year_id+1'
p1414
sg34
(lp1415
g1413
asg36
(lp1416
S'$0$+1'
p1417
ag1413
asg39
(lp1418
S'$0$'
p1419
asbsg56
g0
(g22
g23
g57
tp1420
Rp1421
(dp1422
g28
(lp1423
sg31
Nsg32
S'1'
p1424
sg34
(lp1425
sg36
(lp1426
g1424
asg39
(lp1427
sbsba(iDataDef
SimulationRule
p1428
(dp1429
g20
I1
sg21
g0
(g22
g23
S'age'
p1430
tp1431
Rp1432
(dp1433
g28
(lp1434
S'age'
p1435
asg31
Nsg32
S'age'
p1436
sg34
(lp1437
g1435
asg36
(lp1438
S'$0$'
p1439
ag1435
asg39
(lp1440
S'$0$'
p1441
asbsg14
g42
sg43
g0
(g22
g23
S'age+1'
p1442
tp1443
Rp1444
(dp1445
g28
(lp1446
S'age'
p1447
asg31
Nsg32
S'age+1'
p1448
sg34
(lp1449
g1447
asg36
(lp1450
S'$0$+1'
p1451
ag1447
asg39
(lp1452
S'$0$'
p1453
asbsg56
g0
(g22
g23
g57
tp1454
Rp1455
(dp1456
g28
(lp1457
sg31
Nsg32
g1424
sg34
(lp1458
sg36
(lp1459
g1424
asg39
(lp1460
sbsbasg115
g10
(S'\x07\xe0\x03\x1d\x0c08\x07b\xa0'
p1461
tp1462
Rp1463
sg119
I111111119
sg120
I52000003
sg121
I1212
sg122
S'Intervention1'
p1464
sbsI1140
(iDataDef
Project
p1465
(dp1466
g6
I1
sg7
I100
sg8
I0
sg9
g10
(S'\x07\xe0\x03\x17\x0c4\x05\x05\xfb@'
p1467
tp1468
Rp1469
sg14
S'Multiple events'
p1470
sg16
(lp1471
sg115
g10
(S'\x07\xe0\x03\x17\x0c4\x05\x05\xfb@'
p1472
tp1473
Rp1474
sg119
I1140
sg120
I14000000
sg121
I1140
sg122
S'Simulation Project - Test Example 14'
p1475
sbsI1214
(iDataDef
Project
p1476
(dp1477
g6
I23
sg7
I1
sg8
I0
sg9
g10
(S'\x07\xe0\x03\x1e\x15*\x0f\r\xfa '
p1478
tp1479
Rp1480
sg14
g42
sg16
(lp1481
sg115
g10
(S'\x07\xe0\x03\x1e\x0e;\x00\x08dp'
p1482
tp1483
Rp1484
sg119
I111111122
sg120
I52000005
sg121
I1214
sg122
S'Level3'
p1485
sbsI1080
(iDataDef
Project
p1486
(dp1487
g6
I3
sg7
I100
sg8
I0
sg9
g10
(S'\x07\xe0\x03\x19\x12\x0b\n\x0b\xacH'
p1488
tp1489
Rp1490
sg14
S'An Event State in a Chain'
p1491
sg16
(lp1492
(iDataDef
SimulationRule
p1493
(dp1494
g20
I1
sg21
g0
(g22
g23
S'Age'
p1495
tp1496
Rp1497
(dp1498
g28
(lp1499
S'Age'
p1500
asg31
Nsg32
S'Age'
p1501
sg34
(lp1502
g1500
asg36
(lp1503
S'$0$'
p1504
ag1500
asg39
(lp1505
S'$0$'
p1506
asbsg14
g221
sg43
g0
(g22
g23
S'Age +1'
p1507
tp1508
Rp1509
(dp1510
g28
(lp1511
S'Age'
p1512
asg31
Nsg32
S'Age +1'
p1513
sg34
(lp1514
g1512
asg36
(lp1515
S'$0$ +1'
p1516
ag1512
asg39
(lp1517
S'$0$'
p1518
asbsg56
g0
(g22
g23
g57
tp1519
Rp1520
(dp1521
g28
(lp1522
sg31
Nsg32
S'1'
p1523
sg34
(lp1524
sg36
(lp1525
g1523
asg39
(lp1526
sbsbasg115
g10
(S'\x07\xe0\x03\x17\x0c4\x05\x05\x05('
p1527
tp1528
Rp1529
sg119
I1200
sg120
I10000000
sg121
I1080
sg122
S'Simulation Project - Test Example 8'
p1530
sbsI1210
(iDataDef
Project
p1531
(dp1532
g6
I3
sg7
I600
sg8
I0
sg9
g10
(S'\x07\xe0\x03\x17\x0c4\x05\x08\\\xa0'
p1533
tp1534
Rp1535
sg14
S'Initial Population Defined by Distributions and simple Objectives'
p1536
sg16
(lp1537
(iDataDef
SimulationRule
p1538
(dp1539
g20
I0
sg21
g0
(g22
g23
S'AgeAtStart'
p1540
tp1541
Rp1542
(dp1543
g28
(lp1544
S'AgeAtStart'
p1545
asg31
Nsg32
S'AgeAtStart'
p1546
sg34
(lp1547
g1545
asg36
(lp1548
S'$0$'
p1549
ag1545
asg39
(lp1550
S'$0$'
p1551
asbsg14
S'Copy Age'
p1552
sg43
g0
(g22
g23
S'Age'
p1553
tp1554
Rp1555
(dp1556
g28
(lp1557
S'Age'
p1558
asg31
Nsg32
S'Age'
p1559
sg34
(lp1560
g1558
asg36
(lp1561
S'$0$'
p1562
ag1558
asg39
(lp1563
S'$0$'
p1564
asbsg56
g0
(g22
g23
g57
tp1565
Rp1566
(dp1567
g28
(lp1568
sg31
Nsg32
g238
sg34
(lp1569
sg36
(lp1570
g238
asg39
(lp1571
sbsba(iDataDef
SimulationRule
p1572
(dp1573
g20
I1
sg21
g0
(g22
g23
S'Age'
p1574
tp1575
Rp1576
(dp1577
g28
(lp1578
S'Age'
p1579
asg31
Nsg32
S'Age'
p1580
sg34
(lp1581
g1579
asg36
(lp1582
S'$0$'
p1583
ag1579
asg39
(lp1584
S'$0$'
p1585
asbsg14
g221
sg43
g0
(g22
g23
S'Age +1'
p1586
tp1587
Rp1588
(dp1589
g28
(lp1590
S'Age'
p1591
asg31
Nsg32
S'Age +1'
p1592
sg34
(lp1593
g1591
asg36
(lp1594
S'$0$ +1'
p1595
ag1591
asg39
(lp1596
S'$0$'
p1597
asbsg56
g0
(g22
g23
g57
tp1598
Rp1599
(dp1600
g28
(lp1601
sg31
Nsg32
g238
sg34
(lp1602
sg36
(lp1603
g238
asg39
(lp1604
sbsbasg115
g10
(S'\x07\xe0\x03\x17\x0c4\x05\x08\\\xa0'
p1605
tp1606
Rp1607
sg119
I1210
sg120
I21000000
sg121
I1210
sg122
S'Simulation Project - Test Example 21'
p1608
sbsI1211
(iDataDef
Project
p1609
(dp1610
g6
I23
sg7
I1
sg8
I0
sg9
g10
(S'\x07\xe0\x03\x1e\x15%:\x05\xcc`'
p1611
tp1612
Rp1613
sg14
g42
sg16
(lp1614
(iDataDef
SimulationRule
p1615
(dp1616
g20
I1
sg21
g0
(g22
g23
S'age'
p1617
tp1618
Rp1619
(dp1620
g28
(lp1621
S'age'
p1622
asg31
Nsg32
S'age'
p1623
sg34
(lp1624
g1622
asg36
(lp1625
S'$0$'
p1626
ag1622
asg39
(lp1627
S'$0$'
p1628
asbsg14
g42
sg43
g0
(g22
g23
S'age+1'
p1629
tp1630
Rp1631
(dp1632
g28
(lp1633
S'age'
p1634
asg31
Nsg32
S'age+1'
p1635
sg34
(lp1636
g1634
asg36
(lp1637
S'$0$+1'
p1638
ag1634
asg39
(lp1639
S'$0$'
p1640
asbsg56
g0
(g22
g23
g57
tp1641
Rp1642
(dp1643
g28
(lp1644
sg31
Nsg32
S'1'
p1645
sg34
(lp1646
sg36
(lp1647
g1645
asg39
(lp1648
sbsba(iDataDef
SimulationRule
p1649
(dp1650
g20
I1
sg21
g0
(g22
g23
S'year_id'
p1651
tp1652
Rp1653
(dp1654
g28
(lp1655
S'year_id'
p1656
asg31
Nsg32
S'year_id'
p1657
sg34
(lp1658
g1656
asg36
(lp1659
S'$0$'
p1660
ag1656
asg39
(lp1661
S'$0$'
p1662
asbsg14
g42
sg43
g0
(g22
g23
S'year_id+1'
p1663
tp1664
Rp1665
(dp1666
g28
(lp1667
S'year_id'
p1668
asg31
Nsg32
S'year_id+1'
p1669
sg34
(lp1670
g1668
asg36
(lp1671
S'$0$+1'
p1672
ag1668
asg39
(lp1673
S'$0$'
p1674
asbsg56
g0
(g22
g23
g57
tp1675
Rp1676
(dp1677
g28
(lp1678
sg31
Nsg32
g1645
sg34
(lp1679
sg36
(lp1680
g1645
asg39
(lp1681
sbsbasg115
g10
(S'\x07\xe0\x03\x17\x15\x0c%\x0b\x088'
p1682
tp1683
Rp1684
sg119
I111111122
sg120
I52000002
sg121
I1211
sg122
S'Hyp'
p1685
sbsI1020
(iDataDef
Project
p1686
(dp1687
g6
I5
sg7
I500
sg8
I0
sg9
g10
(S'\x07\xe0\x03\x17\x0c4\x05\x04\x8c\x10'
p1688
tp1689
Rp1690
sg14
S'Multiple Transitions in a Chain'
p1691
sg16
(lp1692
(iDataDef
SimulationRule
p1693
(dp1694
g20
I1
sg21
g0
(g22
g23
S'Age'
p1695
tp1696
Rp1697
(dp1698
g28
(lp1699
S'Age'
p1700
asg31
Nsg32
S'Age'
p1701
sg34
(lp1702
g1700
asg36
(lp1703
S'$0$'
p1704
ag1700
asg39
(lp1705
S'$0$'
p1706
asbsg14
g221
sg43
g0
(g22
g23
S'Age +1'
p1707
tp1708
Rp1709
(dp1710
g28
(lp1711
S'Age'
p1712
asg31
Nsg32
S'Age +1'
p1713
sg34
(lp1714
g1712
asg36
(lp1715
S'$0$ +1'
p1716
ag1712
asg39
(lp1717
S'$0$'
p1718
asbsg56
g0
(g22
g23
g57
tp1719
Rp1720
(dp1721
g28
(lp1722
sg31
Nsg32
g238
sg34
(lp1723
sg36
(lp1724
g238
asg39
(lp1725
sbsbasg115
g10
(S'\x07\xe0\x03\x17\x0c4\x05\x04\x8c\x10'
p1726
tp1727
Rp1728
sg119
I1020
sg120
I2000000
sg121
I1020
sg122
S'Simulation Project - Test Example 2'
p1729
sbsI1213
(iDataDef
Project
p1730
(dp1731
g6
I23
sg7
I1
sg8
I0
sg9
g10
(S"\x07\xe0\x03\x1e\x15'3\x07z\x10"
p1732
tp1733
Rp1734
sg14
g42
sg16
(lp1735
(iDataDef
SimulationRule
p1736
(dp1737
g20
I1
sg21
g0
(g22
g23
S'year_id'
p1738
tp1739
Rp1740
(dp1741
g28
(lp1742
S'year_id'
p1743
asg31
Nsg32
S'year_id'
p1744
sg34
(lp1745
g1743
asg36
(lp1746
S'$0$'
p1747
ag1743
asg39
(lp1748
S'$0$'
p1749
asbsg14
g42
sg43
g0
(g22
g23
S'year_id+1'
p1750
tp1751
Rp1752
(dp1753
g28
(lp1754
S'year_id'
p1755
asg31
Nsg32
S'year_id+1'
p1756
sg34
(lp1757
g1755
asg36
(lp1758
S'$0$+1'
p1759
ag1755
asg39
(lp1760
S'$0$'
p1761
asbsg56
g0
(g22
g23
g57
tp1762
Rp1763
(dp1764
g28
(lp1765
sg31
Nsg32
g1645
sg34
(lp1766
sg36
(lp1767
g1645
asg39
(lp1768
sbsba(iDataDef
SimulationRule
p1769
(dp1770
g20
I1
sg21
g0
(g22
g23
S'age'
p1771
tp1772
Rp1773
(dp1774
g28
(lp1775
S'age'
p1776
asg31
Nsg32
S'age'
p1777
sg34
(lp1778
g1776
asg36
(lp1779
S'$0$'
p1780
ag1776
asg39
(lp1781
S'$0$'
p1782
asbsg14
g42
sg43
g0
(g22
g23
S'age+1'
p1783
tp1784
Rp1785
(dp1786
g28
(lp1787
S'age'
p1788
asg31
Nsg32
S'age+1'
p1789
sg34
(lp1790
g1788
asg36
(lp1791
S'$0$+1'
p1792
ag1788
asg39
(lp1793
S'$0$'
p1794
asbsg56
g0
(g22
g23
g57
tp1795
Rp1796
(dp1797
g28
(lp1798
sg31
Nsg32
g1645
sg34
(lp1799
sg36
(lp1800
g1645
asg39
(lp1801
sbsbasg115
g10
(S'\x07\xe0\x03\x1d\x0e\x01&\r2\xe8'
p1802
tp1803
Rp1804
sg119
I111111122
sg120
I52000004
sg121
I1213
sg122
S'Level2'
p1805
sbsI1150
(iDataDef
Project
p1806
(dp1807
g6
I3
sg7
I100
sg8
I0
sg9
g10
(S'\x07\xe0\x03\x17\x0c4\x05\x05\xfb@'
p1808
tp1809
Rp1810
sg14
S'Simple Table Example'
p1811
sg16
(lp1812
(iDataDef
SimulationRule
p1813
(dp1814
g20
I0
sg21
g0
(g22
g23
S'AgeAtStart'
p1815
tp1816
Rp1817
(dp1818
g28
(lp1819
S'AgeAtStart'
p1820
asg31
Nsg32
S'AgeAtStart'
p1821
sg34
(lp1822
g1820
asg36
(lp1823
S'$0$'
p1824
ag1820
asg39
(lp1825
S'$0$'
p1826
asbsg14
g1552
sg43
g0
(g22
g23
S'Age'
p1827
tp1828
Rp1829
(dp1830
g28
(lp1831
S'Age'
p1832
asg31
Nsg32
S'Age'
p1833
sg34
(lp1834
g1832
asg36
(lp1835
S'$0$'
p1836
ag1832
asg39
(lp1837
S'$0$'
p1838
asbsg56
g0
(g22
g23
g57
tp1839
Rp1840
(dp1841
g28
(lp1842
sg31
Nsg32
g238
sg34
(lp1843
sg36
(lp1844
g238
asg39
(lp1845
sbsba(iDataDef
SimulationRule
p1846
(dp1847
g20
I1
sg21
g0
(g22
g23
S'Age'
p1848
tp1849
Rp1850
(dp1851
g28
(lp1852
S'Age'
p1853
asg31
Nsg32
S'Age'
p1854
sg34
(lp1855
g1853
asg36
(lp1856
S'$0$'
p1857
ag1853
asg39
(lp1858
S'$0$'
p1859
asbsg14
g221
sg43
g0
(g22
g23
S'Age +1'
p1860
tp1861
Rp1862
(dp1863
g28
(lp1864
S'Age'
p1865
asg31
Nsg32
S'Age +1'
p1866
sg34
(lp1867
g1865
asg36
(lp1868
S'$0$ +1'
p1869
ag1865
asg39
(lp1870
S'$0$'
p1871
asbsg56
g0
(g22
g23
g57
tp1872
Rp1873
(dp1874
g28
(lp1875
sg31
Nsg32
g238
sg34
(lp1876
sg36
(lp1877
g238
asg39
(lp1878
sbsbasg115
g10
(S'\x07\xe0\x03\x17\x0c4\x05\x05\xfb@'
p1879
tp1880
Rp1881
sg119
I1150
sg120
I15000000
sg121
I1150
sg122
S'Simulation Project - Test Example 15'
p1882
sbsI1215
(iDataDef
Project
p1883
(dp1884
g6
I23
sg7
I1
sg8
I0
sg9
g10
(S'\x07\xe0\x05\x06\t6\x11\x07\xdf\xa0'
p1885
tp1886
Rp1887
sg14
g42
sg16
(lp1888
(iDataDef
SimulationRule
p1889
(dp1890
g20
I1
sg21
g0
(g22
g23
S'age'
p1891
tp1892
Rp1893
(dp1894
g28
(lp1895
S'age'
p1896
asg31
Nsg32
S'age'
p1897
sg34
(lp1898
g1896
asg36
(lp1899
S'$0$'
p1900
ag1896
asg39
(lp1901
S'$0$'
p1902
asbsg14
g42
sg43
g0
(g22
g23
S'age+1'
p1903
tp1904
Rp1905
(dp1906
g28
(lp1907
S'age'
p1908
asg31
Nsg32
S'age+1'
p1909
sg34
(lp1910
g1908
asg36
(lp1911
S'$0$+1'
p1912
ag1908
asg39
(lp1913
S'$0$'
p1914
asbsg56
g0
(g22
g23
g57
tp1915
Rp1916
(dp1917
g28
(lp1918
sg31
Nsg32
g57
sg34
(lp1919
sg36
(lp1920
g57
asg39
(lp1921
sbsba(iDataDef
SimulationRule
p1922
(dp1923
g20
I1
sg21
g0
(g22
g23
S'year_id'
p1924
tp1925
Rp1926
(dp1927
g28
(lp1928
S'year_id'
p1929
asg31
Nsg32
S'year_id'
p1930
sg34
(lp1931
g1929
asg36
(lp1932
S'$0$'
p1933
ag1929
asg39
(lp1934
S'$0$'
p1935
asbsg14
g42
sg43
g0
(g22
g23
S'year_id+1'
p1936
tp1937
Rp1938
(dp1939
g28
(lp1940
S'year_id'
p1941
asg31
Nsg32
S'year_id+1'
p1942
sg34
(lp1943
g1941
asg36
(lp1944
S'$0$+1'
p1945
ag1941
asg39
(lp1946
S'$0$'
p1947
asbsg56
g0
(g22
g23
g57
tp1948
Rp1949
(dp1950
g28
(lp1951
sg31
Nsg32
g57
sg34
(lp1952
sg36
(lp1953
g57
asg39
(lp1954
sbsbasg115
g10
(S'\x07\xe0\x04\x02\x11\r\x06\x01\xec0'
p1955
tp1956
Rp1957
sg119
I111111126
sg120
I52000006
sg121
I1215
sg122
S'Hello_World'
p1958
sbstp1959
Rp1960
.