ccopy_reg
_reconstructor
p0
(cDataDef
StatesClass
p1
c__builtin__
dict
p2
(dp3
I52000000
(iDataDef
State
p4
(dp5
S'ChildStates'
p6
(lp7
I2200000
aI2200001
aI2200092
asS'Name'
p8
S'Example 5b : Main Process'
p9
sS'IsEvent'
p10
I00
sS'IsTerminal'
p11
I00
sS'IsSplit'
p12
I00
sS'Notes'
p13
S''
p14
sS'ID'
p15
I52000000
sS'JoinerOfSplitter'
p16
I0
sbsI8000000
(iDataDef
State
p17
(dp18
g6
(lp19
I2200000
aI2200050
aI2200091
asg8
S'Example 8 : Main Process'
p20
sg10
I00
sg11
I00
sg12
I00
sg13
g14
sg15
I8000000
sg16
I0
sbsI14000000
(iDataDef
State
p21
(dp22
g6
(lp23
I2200000
aI2200051
aI14000001
aI2200003
aI14000002
asg8
S'Example 14: Main Process'
p24
sg10
I00
sg11
I00
sg12
I00
sg13
g14
sg15
I14000000
sg16
I0
sbsI7000000
(iDataDef
State
p25
(dp26
g6
(lp27
I2200000
aI2200001
aI2200002
aI2200088
asg8
S'Example 7 : Main Process'
p28
sg10
I00
sg11
I00
sg12
I00
sg13
g14
sg15
I7000000
sg16
I0
sbsI2200071
(iDataDef
State
p29
(dp30
g6
(lp31
sg8
S'Splitter1'
p32
sg10
I00
sg11
I00
sg12
I01
sg13
g14
sg15
I2200071
sg16
I0
sbsI2200072
(iDataDef
State
p33
(dp34
g6
(lp35
sg8
S'Splitter2'
p36
sg10
I00
sg11
I00
sg12
I01
sg13
g14
sg15
I2200072
sg16
I0
sbsI12010000
(iDataDef
State
p37
(dp38
g6
(lp39
I2200001
aI2200002
asg8
S'Example12SubProcess1'
p40
sg10
I00
sg11
I00
sg12
I00
sg13
g14
sg15
I12010000
sg16
I0
sbsI2200081
(iDataDef
State
p41
(dp42
g6
(lp43
sg8
S'Joiner1'
p44
sg10
I00
sg11
I00
sg12
I00
sg13
g14
sg15
I2200081
sg16
I2200071
sbsI2200082
(iDataDef
State
p45
(dp46
g6
(lp47
sg8
S'Joiner2'
p48
sg10
I00
sg11
I00
sg12
I00
sg13
g14
sg15
I2200082
sg16
I2200072
sbsI10003
(iDataDef
State
p49
(dp50
g6
(lp51
sg8
S'Death'
p52
sg10
I00
sg11
I01
sg12
I00
sg13
g14
sg15
I10003
sg16
I0
sbsI2200000
(iDataDef
State
p53
(dp54
g6
(lp55
sg8
S'State0'
p56
sg10
I00
sg11
I00
sg12
I00
sg13
g14
sg15
I2200000
sg16
I0
sbsI2200088
(iDataDef
State
p57
(dp58
g6
(lp59
sg8
S'DummyStartEvent'
p60
sg10
I01
sg11
I00
sg12
I00
sg13
g14
sg15
I2200088
sg16
I0
sbsI2200091
(iDataDef
State
p61
(dp62
g6
(lp63
sg8
S'State1Terminal'
p64
sg10
I00
sg11
I01
sg12
I00
sg13
g14
sg15
I2200091
sg16
I0
sbsI2200092
(iDataDef
State
p65
(dp66
g6
(lp67
sg8
S'State2Terminal'
p68
sg10
I00
sg11
I01
sg12
I00
sg13
g14
sg15
I2200092
sg16
I0
sbsI2200093
(iDataDef
State
p69
(dp70
g6
(lp71
sg8
S'State3Terminal'
p72
sg10
I00
sg11
I01
sg12
I00
sg13
g14
sg15
I2200093
sg16
I0
sbsI2200095
(iDataDef
State
p73
(dp74
g6
(lp75
sg8
S'State5Terminal'
p76
sg10
I00
sg11
I01
sg12
I00
sg13
g14
sg15
I2200095
sg16
I0
sbsI12020000
(iDataDef
State
p77
(dp78
g6
(lp79
I2200072
aI12030000
aI12040000
aI2200082
aI2200005
asg8
S'Example12SubProcess2'
p80
sg10
I00
sg11
I00
sg12
I00
sg13
g14
sg15
I12020000
sg16
I0
sbsI10021
(iDataDef
State
p81
(dp82
g6
(lp83
sg8
S'Alive'
p84
sg10
I00
sg11
I00
sg12
I00
sg13
g14
sg15
I10021
sg16
I0
sbsI12040000
(iDataDef
State
p85
(dp86
g6
(lp87
I2200004
asg8
S'Example12SubProcess4'
p88
sg10
I00
sg11
I00
sg12
I00
sg13
g14
sg15
I12040000
sg16
I0
sbsI12030000
(iDataDef
State
p89
(dp90
g6
(lp91
I2200003
asg8
S'Example12SubProcess3'
p92
sg10
I00
sg11
I00
sg12
I00
sg13
g14
sg15
I12030000
sg16
I0
sbsI21000000
(iDataDef
State
p93
(dp94
g6
(lp95
I2200000
aI2200091
asg8
S'Example 21 : Main Process'
p96
sg10
I00
sg11
I00
sg12
I00
sg13
g14
sg15
I21000000
sg16
I0
sbsI13000002
(iDataDef
State
p97
(dp98
g6
(lp99
I2200001
aI2200002
asg8
S'Example13SubProcess1'
p100
sg10
I00
sg11
I00
sg12
I00
sg13
g14
sg15
I13000002
sg16
I0
sbsI13000003
(iDataDef
State
p101
(dp102
g6
(lp103
I2200003
asg8
S'Example13SubProcess3'
p104
sg10
I00
sg11
I00
sg12
I00
sg13
g14
sg15
I13000003
sg16
I0
sbsI13000004
(iDataDef
State
p105
(dp106
g6
(lp107
I2200004
asg8
S'Example13SubProcess4'
p108
sg10
I00
sg11
I00
sg12
I00
sg13
g14
sg15
I13000004
sg16
I0
sbsI13000005
(iDataDef
State
p109
(dp110
g6
(lp111
I2200072
aI2200082
aI2200005
aI13000003
aI13000004
asg8
S'Example13SubProcess2'
p112
sg10
I00
sg11
I00
sg12
I00
sg13
g14
sg15
I13000005
sg16
I0
sbsI92200006
(iDataDef
State
p113
(dp114
g6
(lp115
I2200005
aI92200012
asg8
S'Example 16: Subprocess3'
p116
sg10
I00
sg11
I00
sg12
I00
sg13
g14
sg15
I92200006
sg16
I0
sbsI92200007
(iDataDef
State
p117
(dp118
g6
(lp119
I92200013
aI92200014
asg8
S'Example 16: Subprocess4'
p120
sg10
I00
sg11
I00
sg12
I00
sg13
g14
sg15
I92200007
sg16
I0
sbsI92200008
(iDataDef
State
p121
(dp122
g6
(lp123
I92200015
aI92200016
asg8
S'Example 16: Subprocess5'
p124
sg10
I00
sg11
I00
sg12
I00
sg13
g14
sg15
I92200008
sg16
I0
sbsI92200009
(iDataDef
State
p125
(dp126
g6
(lp127
I92200017
aI92200018
asg8
S'Example 16: Subprocess6'
p128
sg10
I00
sg11
I00
sg12
I00
sg13
g14
sg15
I92200009
sg16
I0
sbsI92200010
(iDataDef
State
p129
(dp130
g6
(lp131
I92200019
aI92200020
asg8
S'Example 16: Subprocess7'
p132
sg10
I00
sg11
I00
sg12
I00
sg13
g14
sg15
I92200010
sg16
I0
sbsI92200011
(iDataDef
State
p133
(dp134
g6
(lp135
I92200021
aI92200022
asg8
S'Example 16: Subprocess8'
p136
sg10
I00
sg11
I00
sg12
I00
sg13
g14
sg15
I92200011
sg16
I0
sbsI92200012
(iDataDef
State
p137
(dp138
g6
(lp139
sg8
S'State6'
p140
sg10
I00
sg11
I00
sg12
I00
sg13
g14
sg15
I92200012
sg16
I0
sbsI92200013
(iDataDef
State
p141
(dp142
g6
(lp143
sg8
S'State7'
p144
sg10
I00
sg11
I00
sg12
I00
sg13
g14
sg15
I92200013
sg16
I0
sbsI4000000
(iDataDef
State
p145
(dp146
g6
(lp147
I2200000
aI2200001
aI2200002
aI2200088
asg8
S'Example 4 : Main Process'
p148
sg10
I00
sg11
I00
sg12
I00
sg13
g14
sg15
I4000000
sg16
I0
sbsI92200015
(iDataDef
State
p149
(dp150
g6
(lp151
sg8
S'State9'
p152
sg10
I00
sg11
I00
sg12
I00
sg13
g14
sg15
I92200015
sg16
I0
sbsI92200016
(iDataDef
State
p153
(dp154
g6
(lp155
sg8
S'State10'
p156
sg10
I00
sg11
I00
sg12
I00
sg13
g14
sg15
I92200016
sg16
I0
sbsI92200017
(iDataDef
State
p157
(dp158
g6
(lp159
sg8
S'State11'
p160
sg10
I00
sg11
I00
sg12
I00
sg13
g14
sg15
I92200017
sg16
I0
sbsI92200018
(iDataDef
State
p161
(dp162
g6
(lp163
sg8
S'State12'
p164
sg10
I00
sg11
I00
sg12
I00
sg13
g14
sg15
I92200018
sg16
I0
sbsI92200019
(iDataDef
State
p165
(dp166
g6
(lp167
sg8
S'State13'
p168
sg10
I00
sg11
I00
sg12
I00
sg13
g14
sg15
I92200019
sg16
I0
sbsI92200020
(iDataDef
State
p169
(dp170
g6
(lp171
sg8
S'State14'
p172
sg10
I00
sg11
I00
sg12
I00
sg13
g14
sg15
I92200020
sg16
I0
sbsI92200021
(iDataDef
State
p173
(dp174
g6
(lp175
sg8
S'State15'
p176
sg10
I00
sg11
I00
sg12
I00
sg13
g14
sg15
I92200021
sg16
I0
sbsI92200022
(iDataDef
State
p177
(dp178
g6
(lp179
sg8
S'State16'
p180
sg10
I00
sg11
I00
sg12
I00
sg13
g14
sg15
I92200022
sg16
I0
sbsI20000000
(iDataDef
State
p181
(dp182
g6
(lp183
I10021
aI1000002
asg8
S'Example 20 : Main Process'
p184
sg10
I00
sg11
I00
sg12
I00
sg13
g14
sg15
I20000000
sg16
I0
sbsI13000000
(iDataDef
State
p185
(dp186
g6
(lp187
I2200000
aI2200071
aI2200096
aI2200081
aI13000002
aI13000005
asg8
S'Example 13 : Main Process'
p188
sg10
I00
sg11
I00
sg12
I00
sg13
g14
sg15
I13000000
sg16
I0
sbsI6000000
(iDataDef
State
p189
(dp190
g6
(lp191
I2200000
aI2200001
aI2200002
aI2200093
asg8
S'Example 6 : Main Process'
p192
sg10
I00
sg11
I00
sg12
I00
sg13
g14
sg15
I6000000
sg16
I0
sbsI11000000
(iDataDef
State
p193
(dp194
g6
(lp195
I2200000
aI2200071
aI11010000
aI11020000
aI2200081
aI2200095
asg8
S'Example 11 : Main Process'
p196
sg10
I00
sg11
I00
sg12
I00
sg13
g14
sg15
I11000000
sg16
I0
sbsI2000000
(iDataDef
State
p197
(dp198
g6
(lp199
I2200000
aI2200001
aI2200092
asg8
S'Example 2 : Main Process'
p200
sg10
I00
sg11
I00
sg12
I00
sg13
g14
sg15
I2000000
sg16
I0
sbsI9000000
(iDataDef
State
p201
(dp202
g6
(lp203
I2200000
aI2200050
aI2200002
aI2200093
asg8
S'Example 9 : Main Process'
p204
sg10
I00
sg11
I00
sg12
I00
sg13
g14
sg15
I9000000
sg16
I0
sbsI14000002
(iDataDef
State
p205
(dp206
g6
(lp207
sg8
S'State4Terminal'
p208
sg10
I00
sg11
I01
sg12
I00
sg13
g14
sg15
I14000002
sg16
I0
sbsI2200001
(iDataDef
State
p209
(dp210
g6
(lp211
sg8
S'State1'
p212
sg10
I00
sg11
I00
sg12
I00
sg13
g14
sg15
I2200001
sg16
I0
sbsI1000002
(iDataDef
State
p213
(dp214
g6
(lp215
sg8
S'Dead'
p216
sg10
I00
sg11
I01
sg12
I00
sg13
g14
sg15
I1000002
sg16
I0
sbsI10010000
(iDataDef
State
p217
(dp218
g6
(lp219
I2200001
asg8
S'Example10SubProcess1'
p220
sg10
I00
sg11
I00
sg12
I00
sg13
g14
sg15
I10010000
sg16
I0
sbsI92200003
(iDataDef
State
p221
(dp222
g6
(lp223
I2200000
aI2200071
aI2200081
aI10003
aI92200004
aI92200005
aI92200006
aI92200007
aI92200008
aI92200009
aI92200010
aI92200011
asg8
S'Example 16: Main Process'
p224
sg10
I00
sg11
I00
sg12
I00
sg13
g14
sg15
I92200003
sg16
I0
sbsI15000000
(iDataDef
State
p225
(dp226
g6
(lp227
I2200000
aI2200091
asg8
S'Example 15 : Main Process'
p228
sg10
I00
sg11
I00
sg12
I00
sg13
g14
sg15
I15000000
sg16
I0
sbsI1000000
(iDataDef
State
p229
(dp230
g6
(lp231
I10021
aI1000002
asg8
S'Example 1 : Main Process'
p232
sg10
I00
sg11
I00
sg12
I00
sg13
g14
sg15
I1000000
sg16
I0
sbsI92200004
(iDataDef
State
p233
(dp234
g6
(lp235
I2200001
aI2200002
asg8
S'Example 16: Subprocess1'
p236
sg10
I00
sg11
I00
sg12
I00
sg13
g14
sg15
I92200004
sg16
I0
sbsI92200005
(iDataDef
State
p237
(dp238
g6
(lp239
I2200003
aI2200004
asg8
S'Example 16: Subprocess2'
p240
sg10
I00
sg11
I00
sg12
I00
sg13
g14
sg15
I92200005
sg16
I0
sbsI10020000
(iDataDef
State
p241
(dp242
g6
(lp243
I2200002
asg8
S'Example10SubProcess2'
p244
sg10
I00
sg11
I00
sg12
I00
sg13
g14
sg15
I10020000
sg16
I0
sbsI18000000
(iDataDef
State
p245
(dp246
g6
(lp247
I2200000
aI2200001
aI2200002
aI2200093
asg8
S'Example 18 : Main Process'
p248
sg10
I00
sg11
I00
sg12
I00
sg13
g14
sg15
I18000000
sg16
I0
sbsI17000000
(iDataDef
State
p249
(dp250
g6
(lp251
I2200000
aI2200001
aI2200002
aI2200093
asg8
S'Example 17 : Main Process'
p252
sg10
I00
sg11
I00
sg12
I00
sg13
g14
sg15
I17000000
sg16
I0
sbsI10000000
(iDataDef
State
p253
(dp254
g6
(lp255
I2200000
aI2200071
aI10010000
aI10020000
aI2200081
aI2200093
asg8
S'Example 10 : Main Process'
p256
sg10
I00
sg11
I00
sg12
I00
sg13
g14
sg15
I10000000
sg16
I0
sbsI3000000
(iDataDef
State
p257
(dp258
g6
(lp259
I2200000
aI2200091
aI2200092
asg8
S'Example 3 : Main Process'
p260
sg10
I00
sg11
I00
sg12
I00
sg13
g14
sg15
I3000000
sg16
I0
sbsI51000000
(iDataDef
State
p261
(dp262
g6
(lp263
I2200000
aI2200001
aI2200092
asg8
S'Example 5a : Main Process'
p264
sg10
I00
sg11
I00
sg12
I00
sg13
g14
sg15
I51000000
sg16
I0
sbsI2200096
(iDataDef
State
p265
(dp266
g6
(lp267
sg8
S'State6Terminal'
p268
sg10
I00
sg11
I01
sg12
I00
sg13
g14
sg15
I2200096
sg16
I0
sbsI2200002
(iDataDef
State
p269
(dp270
g6
(lp271
sg8
S'State2'
p272
sg10
I00
sg11
I00
sg12
I00
sg13
g14
sg15
I2200002
sg16
I0
sbsI2200003
(iDataDef
State
p273
(dp274
g6
(lp275
sg8
S'State3'
p276
sg10
I00
sg11
I00
sg12
I00
sg13
g14
sg15
I2200003
sg16
I0
sbsI2200004
(iDataDef
State
p277
(dp278
g6
(lp279
sg8
S'State4'
p280
sg10
I00
sg11
I00
sg12
I00
sg13
g14
sg15
I2200004
sg16
I0
sbsI2200005
(iDataDef
State
p281
(dp282
g6
(lp283
sg8
S'State5'
p284
sg10
I00
sg11
I00
sg12
I00
sg13
g14
sg15
I2200005
sg16
I0
sbsI11010000
(iDataDef
State
p285
(dp286
g6
(lp287
I2200051
aI2200002
asg8
S'Example11SubProcess1'
p288
sg10
I00
sg11
I00
sg12
I00
sg13
g14
sg15
I11010000
sg16
I0
sbsI14000001
(iDataDef
State
p289
(dp290
g6
(lp291
sg8
S'EventState2'
p292
sg10
I01
sg11
I00
sg12
I00
sg13
g14
sg15
I14000001
sg16
I0
sbsI92200014
(iDataDef
State
p293
(dp294
g6
(lp295
sg8
S'State8'
p296
sg10
I00
sg11
I00
sg12
I00
sg13
g14
sg15
I92200014
sg16
I0
sbsI12000000
(iDataDef
State
p297
(dp298
g6
(lp299
I2200000
aI2200071
aI12010000
aI12020000
aI2200081
aI2200096
asg8
S'Example 12 : Main Process'
p300
sg10
I00
sg11
I00
sg12
I00
sg13
g14
sg15
I12000000
sg16
I0
sbsI11020000
(iDataDef
State
p301
(dp302
g6
(lp303
I2200003
aI2200054
asg8
S'Example11SubProcess2'
p304
sg10
I00
sg11
I00
sg12
I00
sg13
g14
sg15
I11020000
sg16
I0
sbsI92300003
(iDataDef
State
p305
(dp306
g6
(lp307
I2200000
aI2200071
aI2200081
aI10003
aI92300004
aI92300005
aI92300006
aI92300007
aI92300008
asg8
S'Example 19: Main Process'
p308
sg10
I00
sg11
I00
sg12
I00
sg13
g14
sg15
I92300003
sg16
I0
sbsI92300004
(iDataDef
State
p309
(dp310
g6
(lp311
I2200001
aI2200002
asg8
S'Example 19: Subprocess1'
p312
sg10
I00
sg11
I00
sg12
I00
sg13
g14
sg15
I92300004
sg16
I0
sbsI92300005
(iDataDef
State
p313
(dp314
g6
(lp315
I2200003
aI2200004
asg8
S'Example 19: Subprocess2'
p316
sg10
I00
sg11
I00
sg12
I00
sg13
g14
sg15
I92300005
sg16
I0
sbsI92300006
(iDataDef
State
p317
(dp318
g6
(lp319
I2200005
aI92200012
asg8
S'Example 19: Subprocess3'
p320
sg10
I00
sg11
I00
sg12
I00
sg13
g14
sg15
I92300006
sg16
I0
sbsI92300007
(iDataDef
State
p321
(dp322
g6
(lp323
I92200013
aI92200014
asg8
S'Example 19: Subprocess4'
p324
sg10
I00
sg11
I00
sg12
I00
sg13
g14
sg15
I92300007
sg16
I0
sbsI92300008
(iDataDef
State
p325
(dp326
g6
(lp327
I92200015
aI92200016
asg8
S'Example 19: Subprocess5'
p328
sg10
I00
sg11
I00
sg12
I00
sg13
g14
sg15
I92300008
sg16
I0
sbsI92300009
(iDataDef
State
p329
(dp330
g6
(lp331
I10021
aI92300011
aI92300010
asg8
S'Level2'
p332
sg10
I00
sg11
I00
sg12
I00
sg13
g14
sg15
I92300009
sg16
I0
sbsI92300010
(iDataDef
State
p333
(dp334
g6
(lp335
sg8
S'Dead from All Cause'
p336
sg10
I00
sg11
I01
sg12
I00
sg13
g14
sg15
I92300010
sg16
I0
sbsI92300011
(iDataDef
State
p337
(dp338
g6
(lp339
sg8
S'Dead from Cause2'
p340
sg10
I00
sg11
I01
sg12
I00
sg13
g14
sg15
I92300011
sg16
I0
sbsI2200050
(iDataDef
State
p341
(dp342
g6
(lp343
sg8
S'EventState'
p344
sg10
I01
sg11
I00
sg12
I00
sg13
g14
sg15
I2200050
sg16
I0
sbsI2200051
(iDataDef
State
p345
(dp346
g6
(lp347
sg8
S'EventState1'
p348
sg10
I01
sg11
I00
sg12
I00
sg13
g14
sg15
I2200051
sg16
I0
sbsI2200054
(iDataDef
State
p349
(dp350
g6
(lp351
sg8
S'EventState4'
p352
sg10
I01
sg11
I00
sg12
I00
sg13
g14
sg15
I2200054
sg16
I0
sbstp353
Rp354
.