ccopy_reg
_reconstructor
p0
(cDataDef
StudyModelsClass
p1
c__builtin__
dict
p2
(dp3
I2000000
(iDataDef
StudyModel
p4
(dp5
S'Name'
p6
S'Simulation Example 2: Multiple Transitions in a Chain'
p7
sS'DerivedFrom'
p8
I0
sS'LastModified'
p9
cdatetime
datetime
p10
(S'\x07\xe0\x03\x17\x0c4\x05\x04Qx'
p11
tp12
Rp13
sS'Notes'
p14
S''
p15
sS'MainProcess'
p16
I2000000
sS'CreatedOn'
p17
g10
(S'\x07\xe0\x03\x17\x0c4\x05\x04Qx'
p18
tp19
Rp20
sS'ID'
p21
I2000000
sbsI14000000
(iDataDef
StudyModel
p22
(dp23
g6
S'Simulation Example 14: Multiple events'
p24
sg8
I0
sg9
g10
(S'\x07\xe0\x03\x17\x0c4\x05\x05\xbc\xc0'
p25
tp26
Rp27
sg14
g15
sg16
I14000000
sg17
g10
(S'\x07\xe0\x03\x17\x0c4\x05\x05\xbc\xc0'
p28
tp29
Rp30
sg21
I14000000
sbsI52000002
(iDataDef
StudyModel
p31
(dp32
g6
S'Hypertension Test 1'
p33
sg8
I0
sg9
g10
(S'\x07\xe0\x03\x17\x1474\x08\xae\xa8'
p34
tp35
Rp36
sg14
g15
sg16
I1000000
sg17
g10
(S'\x07\xe0\x03\x17\x1474\x08\xae\xa8'
p37
tp38
Rp39
sg21
I52000002
sbsI52000003
(iDataDef
StudyModel
p40
(dp41
g6
S'Intervention1'
p42
sg8
I0
sg9
g10
(S'\x07\xe0\x03\x1d\x0c/\x17\x07b\xa0'
p43
tp44
Rp45
sg14
g15
sg16
I1000000
sg17
g10
(S'\x07\xe0\x03\x1d\x0c/\x17\x07b\xa0'
p46
tp47
Rp48
sg21
I52000003
sbsI52000004
(iDataDef
StudyModel
p49
(dp50
g6
S'Level2'
p51
sg8
I0
sg9
g10
(S'\x07\xe0\x03\x1d\r;(\n\x7f\x80'
p52
tp53
Rp54
sg14
g15
sg16
I92300009
sg17
g10
(S'\x07\xe0\x03\x1d\r*:\x0e\xa2\x18'
p55
tp56
Rp57
sg21
I52000004
sbsI52000005
(iDataDef
StudyModel
p58
(dp59
g6
S'Level3'
p60
sg8
I0
sg9
g10
(S'\x07\xe0\x03\x1d\x0e\x0f\x15\x01$\xf8'
p61
tp62
Rp63
sg14
g15
sg16
I92300009
sg17
g10
(S'\x07\xe0\x03\x1d\x0e\x0f\x15\x01$\xf8'
p64
tp65
Rp66
sg21
I52000005
sbsI52000006
(iDataDef
StudyModel
p67
(dp68
g6
S'GBD Data'
p69
sg8
I0
sg9
g10
(S"\x07\xe0\x04\x02\x10\x0f'\x06.\x08"
p70
tp71
Rp72
sg14
g15
sg16
I1000000
sg17
g10
(S"\x07\xe0\x04\x02\x10\x0f'\x06.\x08"
p73
tp74
Rp75
sg21
I52000006
sbsI52000001
(iDataDef
StudyModel
p76
(dp77
g6
S'Simulation Example 16: Function Tests'
p78
sg8
I0
sg9
g10
(S'\x07\xe0\x03\x17\x0c4\x05\x069\xc0'
p79
tp80
Rp81
sg14
g15
sg16
I92200003
sg17
g10
(S'\x07\xe0\x03\x17\x0c4\x05\x069\xc0'
p82
tp83
Rp84
sg21
I52000001
sbsI52000008
(iDataDef
StudyModel
p85
(dp86
g6
S'test'
p87
sg8
I0
sg9
g10
(S'\x07\xe0\x04\x1b\x10\x00\x18\x02B '
p88
tp89
Rp90
sg14
g15
sg16
I1000000
sg17
g10
(S'\x07\xe0\x04\x1b\x10\x00\x18\x02B '
p91
tp92
Rp93
sg21
I52000008
sbsI18000000
(iDataDef
StudyModel
p94
(dp95
g6
S'Simulation Example 18: Tests Cost/QoL Wizard'
p96
sg8
I0
sg9
g10
(S'\x07\xe0\x03\x17\x0c4\x05\x07jp'
p97
tp98
Rp99
sg14
g15
sg16
I18000000
sg17
g10
(S'\x07\xe0\x03\x17\x0c4\x05\x07jp'
p100
tp101
Rp102
sg21
I18000000
sbsI11000000
(iDataDef
StudyModel
p103
(dp104
g6
S'Simulation Example 11: Split, Join, and Event Test'
p105
sg8
I0
sg9
g10
(S'\x07\xe0\x03\x17\x0c4\x05\x05C\xa8'
p106
tp107
Rp108
sg14
g15
sg16
I11000000
sg17
g10
(S'\x07\xe0\x03\x17\x0c4\x05\x05C\xa8'
p109
tp110
Rp111
sg21
I11000000
sbsI21000000
(iDataDef
StudyModel
p112
(dp113
g6
S'Simulation Example 21: Initial Population Defined by Distributions and simple Objectives'
p114
sg8
I0
sg9
g10
(S'\x07\xe0\x03\x17\x0c4\x05\x08"\x08'
p115
tp116
Rp117
sg14
g15
sg16
I21000000
sg17
g10
(S'\x07\xe0\x03\x17\x0c4\x05\x08"\x08'
p118
tp119
Rp120
sg21
I21000000
sbsI4000000
(iDataDef
StudyModel
p121
(dp122
g6
S'Simulation Example 4:  Funny Loop Example'
p123
sg8
I0
sg9
g10
(S'\x07\xe0\x03\x17\x0c4\x05\x04\x8c\x10'
p124
tp125
Rp126
sg14
g15
sg16
I4000000
sg17
g10
(S'\x07\xe0\x03\x17\x0c4\x05\x04\x8c\x10'
p127
tp128
Rp129
sg21
I4000000
sbsI15000000
(iDataDef
StudyModel
p130
(dp131
g6
S'Simulation Example 15: Simple Table Example'
p132
sg8
I0
sg9
g10
(S'\x07\xe0\x03\x17\x0c4\x05\x05\xfb@'
p133
tp134
Rp135
sg14
g15
sg16
I15000000
sg17
g10
(S'\x07\xe0\x03\x17\x0c4\x05\x05\xfb@'
p136
tp137
Rp138
sg21
I15000000
sbsI8000000
(iDataDef
StudyModel
p139
(dp140
g6
S'Simulation Example 8: An Event State in a Chain'
p141
sg8
I0
sg9
g10
(S'\x07\xe0\x03\x17\x0c4\x05\x05\x05('
p142
tp143
Rp144
sg14
g15
sg16
I8000000
sg17
g10
(S'\x07\xe0\x03\x17\x0c4\x05\x05\x05('
p145
tp146
Rp147
sg21
I8000000
sbsI1000000
(iDataDef
StudyModel
p148
(dp149
g6
S'Simulation Example 1: Simple Example'
p150
sg8
I0
sg9
g10
(S'\x07\xe0\x03\x17\x0c4\x05\x04Qx'
p151
tp152
Rp153
sg14
g15
sg16
I1000000
sg17
g10
(S'\x07\xe0\x03\x17\x0c4\x05\x04Qx'
p154
tp155
Rp156
sg21
I1000000
sbsI51000000
(iDataDef
StudyModel
p157
(dp158
g6
S'Simulation Example 5a: Multiple Transitions in a Chain with an Expression and Boolean Covariate'
p159
sg8
I0
sg9
g10
(S'\x07\xe0\x03\x17\x0c4\x05\x04\x8c\x10'
p160
tp161
Rp162
sg14
g15
sg16
I51000000
sg17
g10
(S'\x07\xe0\x03\x17\x0c4\x05\x04\x8c\x10'
p163
tp164
Rp165
sg21
I51000000
sbsI12000000
(iDataDef
StudyModel
p166
(dp167
g6
S'Simulation Example 12: Nested split/join test'
p168
sg8
I0
sg9
g10
(S'\x07\xe0\x03\x17\x0c4\x05\x05\x82('
p169
tp170
Rp171
sg14
g15
sg16
I12000000
sg17
g10
(S'\x07\xe0\x03\x17\x0c4\x05\x05\x82('
p172
tp173
Rp174
sg21
I12000000
sbsI19000000
(iDataDef
StudyModel
p175
(dp176
g6
S'Simulation Example 19: Distribution Function Test'
p177
sg8
I0
sg9
g10
(S'\x07\xe0\x03\x17\x0c4\x05\x07\xa5\x08'
p178
tp179
Rp180
sg14
g15
sg16
I92300003
sg17
g10
(S'\x07\xe0\x03\x17\x0c4\x05\x07\xa5\x08'
p181
tp182
Rp183
sg21
I19000000
sbsI9000000
(iDataDef
StudyModel
p184
(dp185
g6
S'Simulation Example 9: Combined Fork Loop and Event state'
p186
sg8
I0
sg9
g10
(S'\x07\xe0\x03\x17\x0c4\x05\x05\x05('
p187
tp188
Rp189
sg14
g15
sg16
I9000000
sg17
g10
(S'\x07\xe0\x03\x17\x0c4\x05\x05\x05('
p190
tp191
Rp192
sg21
I9000000
sbsI52000007
(iDataDef
StudyModel
p193
(dp194
g6
S'HelloWorldIntervention'
p195
sg8
I0
sg9
g10
(S'\x07\xe0\x04\x07\r\x19\x18\x0b\x1f\xa8'
p196
tp197
Rp198
sg14
g15
sg16
I1000000
sg17
g10
(S'\x07\xe0\x04\x07\r\x19\x18\x0b\x1f\xa8'
p199
tp200
Rp201
sg21
I52000007
sbsI52000000
(iDataDef
StudyModel
p202
(dp203
g6
S'Simulation Example 5b:  Multiple Transitions in a Chain with an Expression and Continuous Covariate'
p204
sg8
I0
sg9
g10
(S'\x07\xe0\x03\x17\x0c4\x05\x04\x8c\x10'
p205
tp206
Rp207
sg14
g15
sg16
I52000000
sg17
g10
(S'\x07\xe0\x03\x17\x0c4\x05\x04\x8c\x10'
p208
tp209
Rp210
sg21
I52000000
sbsI13000000
(iDataDef
StudyModel
p211
(dp212
g6
S'Simulation Example 13: Split and join test without termination in a subprocess'
p213
sg8
I0
sg9
g10
(S'\x07\xe0\x03\x17\x0c4\x05\x05\xbc\xc0'
p214
tp215
Rp216
sg14
g15
sg16
I13000000
sg17
g10
(S'\x07\xe0\x03\x17\x0c4\x05\x05\xbc\xc0'
p217
tp218
Rp219
sg21
I13000000
sbsI20000000
(iDataDef
StudyModel
p220
(dp221
g6
S'Simulation Example 20: Simple Example with Initial Population Defined by Distributions'
p222
sg8
I0
sg9
g10
(S'\x07\xe0\x03\x17\x0c4\x05\x08"\x08'
p223
tp224
Rp225
sg14
g15
sg16
I1000000
sg17
g10
(S'\x07\xe0\x03\x17\x0c4\x05\x08"\x08'
p226
tp227
Rp228
sg21
I20000000
sbsI17000000
(iDataDef
StudyModel
p229
(dp230
g6
S'Simulation Example 17: Tests Iif(), conditionals, and feedback to indicators'
p231
sg8
I0
sg9
g10
(S'\x07\xe0\x03\x17\x0c4\x05\x07+\xf0'
p232
tp233
Rp234
sg14
g15
sg16
I17000000
sg17
g10
(S'\x07\xe0\x03\x17\x0c4\x05\x07+\xf0'
p235
tp236
Rp237
sg21
I17000000
sbsI10000000
(iDataDef
StudyModel
p238
(dp239
g6
S'Simulation Example 10: Split, Join, Simple Test'
p240
sg8
I0
sg9
g10
(S'\x07\xe0\x03\x17\x0c4\x05\x05\x05('
p241
tp242
Rp243
sg14
g15
sg16
I10000000
sg17
g10
(S'\x07\xe0\x03\x17\x0c4\x05\x05\x05('
p244
tp245
Rp246
sg21
I10000000
sbsI3000000
(iDataDef
StudyModel
p247
(dp248
g6
S'Simulation Example 3:  A fork state'
p249
sg8
I0
sg9
g10
(S'\x07\xe0\x03\x17\x0c4\x05\x04\x8c\x10'
p250
tp251
Rp252
sg14
g15
sg16
I3000000
sg17
g10
(S'\x07\xe0\x03\x17\x0c4\x05\x04\x8c\x10'
p253
tp254
Rp255
sg21
I3000000
sbsI6000000
(iDataDef
StudyModel
p256
(dp257
g6
S'Simulation Example 6:  Multiple Transitions in a Long Chain with an Expression Containing a Continuous Covariate'
p258
sg8
I0
sg9
g10
(S'\x07\xe0\x03\x17\x0c4\x05\x04\xca\x90'
p259
tp260
Rp261
sg14
g15
sg16
I6000000
sg17
g10
(S'\x07\xe0\x03\x17\x0c4\x05\x04\xca\x90'
p262
tp263
Rp264
sg21
I6000000
sbsI7000000
(iDataDef
StudyModel
p265
(dp266
g6
S'Simulation Example 7: Funny Loop Example with an Expression'
p267
sg8
I0
sg9
g10
(S'\x07\xe0\x03\x17\x0c4\x05\x04\xca\x90'
p268
tp269
Rp270
sg14
g15
sg16
I7000000
sg17
g10
(S'\x07\xe0\x03\x17\x0c4\x05\x04\xca\x90'
p271
tp272
Rp273
sg21
I7000000
sbstp274
Rp275
.